(dp0
S'MLH1_599'
p1
S'E'
p2
sS'MLH1_598'
p3
S'T'
p4
sS'MSH6_258'
p5
S'I'
p6
sS'MSH6_259'
p7
S'G'
p8
sS'MSH6_529'
p9
g8
sS'MLH1_591'
p10
S'D'
p11
sS'MLH1_590'
p12
S'L'
p13
sS'MLH1_593'
p14
S'P'
p15
sS'MLH1_592'
p16
S'S'
p17
sS'MLH1_595'
p18
g17
sS'MLH1_594'
p19
g2
sS'MLH1_597'
p20
S'W'
p21
sS'MLH1_596'
p22
g8
sS'PMS2_652'
p23
g6
sS'MSH2_209'
p24
g11
sS'MSH2_208'
p25
g8
sS'MSH2_205'
p26
g2
sS'MSH2_204'
p27
g8
sS'MSH2_207'
p28
S'A'
p29
sS'MSH2_206'
p30
g4
sS'MSH2_201'
p31
g13
sS'MSH2_200'
p32
S'V'
p33
sS'MSH2_203'
p34
g8
sS'MSH2_202'
p35
g15
sS'MSH2_858'
p36
g8
sS'MSH2_859'
p37
g2
sS'MSH2_913'
p38
g29
sS'MSH6_252'
p39
g17
sS'MSH2_912'
p40
S'K'
p41
sS'MSH6_253'
p42
g11
sS'MSH6_250'
p43
g33
sS'MLH1_670'
p44
g41
sS'MSH6_251'
p45
g6
sS'MLH1_671'
p46
g2
sS'MSH6_256'
p47
g17
sS'MSH2_544'
p48
g6
sS'MSH6_257'
p49
g11
sS'PMS2_292'
p50
g6
sS'MSH2_919'
p51
S'N'
p52
sS'PMS2_290'
p53
S'F'
p54
sS'MLH1_673'
p55
g54
sS'PMS2_286'
p56
g11
sS'MSH6_254'
p57
g17
sS'MSH6_328'
p58
g17
sS'MSH2_918'
p59
g41
sS'MSH6_326'
p60
g29
sS'MLH1_674'
p61
g2
sS'MSH6_324'
p62
g41
sS'MSH6_255'
p63
g2
sS'MSH6_322'
p64
g29
sS'MSH6_323'
p65
g4
sS'MSH6_320'
p66
g15
sS'MLH1_675'
p67
g17
sS'MSH2_371'
p68
g2
sS'MSH2_370'
p69
g29
sS'MLH1_449'
p70
g8
sS'MLH1_448'
p71
g2
sS'MSH2_375'
p72
g4
sS'MSH2_374'
p73
S'Q'
p74
sS'MSH2_377'
p75
g74
sS'MSH2_376'
p76
g13
sS'MLH1_443'
p77
g41
sS'MSH2_378'
p78
g2
sS'MLH1_441'
p79
g29
sS'MLH1_440'
p80
g33
sS'MLH1_447'
p81
g13
sS'MLH1_446'
p82
g17
sS'MLH1_445'
p83
g74
sS'MLH1_444'
p84
g52
sS'PMS2_498'
p85
g17
sS'PMS2_281'
p86
g8
sS'PMS2_499'
p87
g4
sS'MSH6_154'
p88
g17
sS'MLH1_37'
p89
g2
sS'MLH1_36'
p90
g6
sS'MLH1_35'
p91
S'M'
p92
sS'MLH1_34'
p93
g2
sS'MLH1_33'
p94
g41
sS'MLH1_32'
p95
g6
sS'MLH1_31'
p96
g29
sS'MLH1_30'
p97
g52
sS'PMS2_656'
p98
g2
sS'MLH1_39'
p99
S'C'
p100
sS'MLH1_38'
p101
g52
sS'PMS2_280'
p102
g33
sS'PMS2_94'
p103
g2
sS'PMS2_97'
p104
g11
sS'PMS2_96'
p105
g29
sS'PMS2_91'
p106
g41
sS'PMS2_90'
p107
g17
sS'PMS2_93'
p108
g74
sS'PMS2_92'
p109
g6
sS'PMS2_99'
p110
g4
sS'PMS2_98'
p111
g13
sS'PMS2_701'
p112
S'H'
p113
sS'PMS2_657'
p114
g52
sS'PMS2_128'
p115
g17
sS'PMS2_616'
p116
g33
sS'MSH2_861'
p117
g74
sS'PMS2_614'
p118
g41
sS'PMS2_615'
p119
g33
sS'PMS2_612'
p120
g52
sS'PMS2_613'
p121
g41
sS'PMS2_610'
p122
g41
sS'PMS2_611'
p123
g6
sS'PMS2_618'
p124
g13
sS'PMS2_619'
p125
g11
sS'PMS2_706'
p126
g41
sS'PMS2_654'
p127
g15
sS'PMS2_259'
p128
g100
sS'MSH2_860'
p129
g17
sS'MSH2_762'
p130
g13
sS'MSH2_763'
p131
g29
sS'MSH2_760'
p132
g54
sS'MSH2_761'
p133
g8
sS'MSH2_766'
p134
g6
sS'MSH2_767'
p135
g17
sS'MSH2_764'
p136
g21
sS'MSH2_765'
p137
g29
sS'PMS2_535'
p138
g17
sS'MSH2_768'
p139
g2
sS'MSH2_769'
p140
S'Y'
p141
sS'MSH2_560'
p142
g52
sS'MSH2_561'
p143
g2
sS'MLH1_698'
p144
g17
sS'MLH1_699'
p145
g8
sS'MSH2_564'
p146
g4
sS'MSH2_565'
p147
g41
sS'MSH2_566'
p148
g52
sS'MSH2_567'
p149
g41
sS'MLH1_692'
p150
g17
sS'MLH1_693'
p151
g2
sS'MLH1_690'
p152
g141
sS'MLH1_691'
p153
g6
sS'MLH1_696'
p154
g4
sS'MLH1_697'
p155
g13
sS'MLH1_694'
p156
g2
sS'MLH1_695'
p157
g17
sS'PMS2_278'
p158
g113
sS'PMS2_279'
p159
g8
sS'PMS2_270'
p160
g17
sS'PMS2_271'
p161
g8
sS'PMS2_272'
p162
g54
sS'PMS2_273'
p163
g6
sS'PMS2_274'
p164
g17
sS'PMS2_275'
p165
g74
sS'PMS2_276'
p166
g100
sS'PMS2_277'
p167
g4
sS'MSH6_1356'
p168
g13
sS'PMS2_472'
p169
g41
sS'MSH2_862'
p170
g8
sS'PMS2_534'
p171
g11
sS'PMS2_155'
p172
g4
sS'PMS2_658'
p173
g74
sS'MSH2_95'
p174
g33
sS'MSH2_94'
p175
g13
sS'MSH2_97'
p176
g74
sS'MSH2_96'
p177
S'R'
p178
sS'MSH2_91'
p179
g11
sS'MSH2_90'
p180
g41
sS'MSH2_93'
p181
g13
sS'MSH2_92'
p182
g13
sS'PMS2_502'
p183
g11
sS'MSH2_99'
p184
g178
sS'MSH2_98'
p185
g141
sS'PMS2_154'
p186
g8
sS'PMS2_105'
p187
g8
sS'PMS2_831'
p188
g6
sS'MSH6_803'
p189
g11
sS'MSH6_901'
p190
g178
sS'MSH6_802'
p191
g15
sS'MSH6_906'
p192
g4
sS'MSH6_801'
p193
g33
sS'MSH6_907'
p194
g33
sS'MSH6_1313'
p195
g6
sS'MSH6_1312'
p196
g33
sS'MSH6_1311'
p197
g2
sS'MSH6_1310'
p198
g2
sS'MSH6_1317'
p199
g113
sS'MSH2_867'
p200
g2
sS'MSH6_1315'
p201
g41
sS'MSH6_1314'
p202
g74
sS'MSH6_551'
p203
g8
sS'MSH6_1319'
p204
g41
sS'MSH6_1318'
p205
g178
sS'MSH6_806'
p206
g17
sS'MLH1_274'
p207
g41
sS'MLH1_275'
p208
g29
sS'MLH1_276'
p209
g6
sS'MLH1_277'
p210
g2
sS'MLH1_270'
p211
g4
sS'MLH1_271'
p212
g17
sS'MLH1_272'
p213
g13
sS'MLH1_273'
p214
g178
sS'MSH2_780'
p215
g54
sS'MSH2_781'
p216
g29
sS'MSH2_782'
p217
g4
sS'MSH2_783'
p218
g113
sS'MLH1_278'
p219
g4
sS'MLH1_279'
p220
g33
sS'MSH2_786'
p221
g2
sS'MSH2_787'
p222
g13
sS'MSH6_909'
p223
g13
sS'PMS2_500'
p224
g17
sS'PMS2_156'
p225
g4
sS'MSH6_265'
p226
g54
sS'MSH6_1088'
p227
g54
sS'PMS2_473'
p228
g2
sS'MSH2_869'
p229
g29
sS'PMS2_501'
p230
g33
sS'MSH6_264'
p231
g2
sS'MLH1_308'
p232
g113
sS'MLH1_309'
p233
g15
sS'MSH6_1265'
p234
g8
sS'MSH6_1264'
p235
g13
sS'MSH6_1263'
p236
g178
sS'MSH6_1262'
p237
g33
sS'MSH6_1261'
p238
g29
sS'MSH6_1260'
p239
g33
sS'MLH1_300'
p240
g15
sS'MLH1_301'
p241
g74
sS'MLH1_302'
p242
g52
sS'MLH1_303'
p243
g33
sS'MLH1_304'
p244
g11
sS'MLH1_305'
p245
g33
sS'MLH1_306'
p246
g52
sS'MLH1_307'
p247
g33
sS'MSH6_663'
p248
g4
sS'MSH6_662'
p249
g92
sS'MSH6_359'
p250
g17
sS'MSH6_660'
p251
g41
sS'MSH6_667'
p252
g11
sS'MSH6_666'
p253
g17
sS'MSH6_665'
p254
g2
sS'MSH6_664'
p255
g17
sS'MSH6_669'
p256
g6
sS'MSH6_668'
p257
g17
sS'MSH6_358'
p258
g11
sS'MSH6_1049'
p259
g17
sS'MSH6_1048'
p260
g74
sS'PMS2_293'
p261
g52
sS'MSH6_1043'
p262
g52
sS'MSH6_1042'
p263
g41
sS'MSH6_1041'
p264
g11
sS'MSH6_1040'
p265
g54
sS'MSH6_1047'
p266
g21
sS'MSH6_1046'
p267
g11
sS'MSH6_1045'
p268
g41
sS'MSH6_1044'
p269
g141
sS'PMS2_291'
p270
g54
sS'PMS2_296'
p271
g15
sS'PMS2_297'
p272
g100
sS'MSH6_407'
p273
g4
sS'MSH6_406'
p274
g100
sS'MSH6_405'
p275
g17
sS'MSH6_404'
p276
g52
sS'MSH2_168'
p277
g17
sS'MSH2_169'
p278
g6
sS'MSH6_401'
p279
g11
sS'MSH6_400'
p280
g2
sS'MSH2_164'
p281
g8
sS'MSH2_165'
p282
g141
sS'MSH2_166'
p283
g33
sS'MSH2_167'
p284
g11
sS'MSH2_160'
p285
g74
sS'MSH2_161'
p286
g33
sS'MSH2_162'
p287
g8
sS'MSH2_163'
p288
g33
sS'MSH6_797'
p289
g11
sS'MSH6_796'
p290
g2
sS'MSH6_795'
p291
g6
sS'MSH6_794'
p292
g29
sS'MSH6_793'
p293
g11
sS'MSH6_792'
p294
g13
sS'MSH6_791'
p295
g178
sS'MSH6_327'
p296
g4
sS'PMS2_113'
p297
g17
sS'MSH6_799'
p298
g92
sS'MSH6_798'
p299
g13
sS'MSH6_883'
p300
g41
sS'MSH6_882'
p301
g54
sS'MSH6_881'
p302
g8
sS'MSH6_325'
p303
g74
sS'MSH6_887'
p304
g13
sS'MLH1_676'
p305
g13
sS'MSH6_885'
p306
g41
sS'MSH6_884'
p307
g17
sS'PMS2_115'
p308
g100
sS'MSH6_889'
p309
g74
sS'MSH6_888'
p310
g41
sS'PMS2_114'
p311
g13
sS'PMS2_117'
p312
g13
sS'MSH6_321'
p313
g17
sS'PMS2_427'
p314
g178
sS'MSH2_278'
p315
g2
sS'MSH6_539'
p316
g13
sS'MLH1_677'
p317
g17
sS'MSH6_249'
p318
g178
sS'MSH6_248'
p319
g178
sS'MSH2_279'
p320
g13
sS'MSH6_245'
p321
g6
sS'MSH6_244'
p322
g74
sS'MSH6_247'
p323
g41
sS'MSH6_246'
p324
g41
sS'MSH6_241'
p325
g17
sS'MSH2_373'
p326
g178
sS'MSH6_243'
p327
g178
sS'MSH6_242'
p328
g17
sS'MSH2_372'
p329
g13
sS'PMS2_141'
p330
g8
sS'PMS2_506'
p331
g54
sS'PMS2_507'
p332
g17
sS'PMS2_504'
p333
g2
sS'PMS2_505'
p334
g8
sS'MSH2_379'
p335
g11
sS'MLH1_442'
p336
g29
sS'MSH6_937'
p337
g141
sS'PMS2_508'
p338
g6
sS'PMS2_509'
p339
g15
sS'MSH2_274'
p340
g6
sS'MSH6_1359'
p341
g2
sS'MLH1_569'
p342
g29
sS'MSH6_331'
p343
g17
sS'MSH6_330'
p344
g17
sS'MSH6_333'
p345
g4
sS'MSH6_332'
p346
g2
sS'MSH6_335'
p347
g52
sS'MSH6_334'
p348
g41
sS'MSH6_337'
p349
g13
sS'MSH6_336'
p350
g4
sS'MSH6_339'
p351
g29
sS'MSH6_338'
p352
g178
sS'PMS2_289'
p353
g54
sS'PMS2_288'
p354
g74
sS'PMS2_648'
p355
g54
sS'MSH2_304'
p356
g6
sS'MSH2_305'
p357
g29
sS'MSH2_306'
p358
g29
sS'MSH2_307'
p359
g33
sS'MSH2_300'
p360
g92
sS'MSH2_301'
p361
g41
sS'MSH2_302'
p362
g13
sS'MSH2_303'
p363
g11
sS'MLH1_476'
p364
g11
sS'MLH1_477'
p365
g17
sS'MLH1_474'
p366
g178
sS'MLH1_475'
p367
g2
sS'MSH2_308'
p368
g178
sS'MLH1_473'
p369
g113
sS'MLH1_470'
p370
g178
sS'MLH1_471'
p371
g41
sS'MSH6_935'
p372
g17
sS'MLH1_24'
p373
g33
sS'MLH1_25'
p374
g6
sS'MLH1_26'
p375
g74
sS'MLH1_27'
p376
g178
sS'MLH1_20'
p377
g29
sS'MLH1_21'
p378
g29
sS'MLH1_22'
p379
g8
sS'MLH1_23'
p380
g2
sS'MSH6_805'
p381
g6
sS'MLH1_28'
p382
g15
sS'MLH1_29'
p383
g29
sS'PMS2_82'
p384
g8
sS'PMS2_752'
p385
g11
sS'PMS2_80'
p386
g54
sS'PMS2_81'
p387
g2
sS'PMS2_86'
p388
g41
sS'PMS2_87'
p389
g113
sS'PMS2_84'
p390
g4
sS'PMS2_85'
p391
g13
sS'MSH2_906'
p392
g6
sS'PMS2_88'
p393
g113
sS'PMS2_89'
p394
g4
sS'MSH2_418'
p395
g6
sS'MSH2_419'
p396
g74
sS'MSH2_410'
p397
g8
sS'MSH2_411'
p398
g6
sS'MSH2_412'
p399
g52
sS'MSH2_413'
p400
g74
sS'MSH2_414'
p401
g13
sS'MSH2_415'
p402
g15
sS'MSH2_416'
p403
g52
sS'MSH2_417'
p404
g33
sS'MSH2_907'
p405
g41
sS'MSH6_269'
p406
g4
sS'PMS2_861'
p407
g74
sS'PMS2_860'
p408
g17
sS'MSH6_969'
p409
g141
sS'PMS2_680'
p410
g8
sS'PMS2_255'
p411
g141
sS'MSH2_775'
p412
g8
sS'MSH2_774'
p413
g6
sS'MSH2_777'
p414
g54
sS'MSH2_776'
p415
g29
sS'MSH2_771'
p416
g29
sS'MSH2_770'
p417
g6
sS'MSH2_773'
p418
g41
sS'MSH2_772'
p419
g4
sS'MSH2_779'
p420
g92
sS'MSH2_778'
p421
g100
sS'MSH2_573'
p422
g29
sS'MSH2_572'
p423
g2
sS'MSH2_571'
p424
g2
sS'MSH2_570'
p425
g141
sS'MLH1_689'
p426
g74
sS'MLH1_688'
p427
g41
sS'MSH2_575'
p428
g11
sS'MSH2_574'
p429
g74
sS'MLH1_685'
p430
g17
sS'MLH1_684'
p431
g141
sS'MSH2_579'
p432
g41
sS'MSH2_578'
p433
g33
sS'MLH1_681'
p434
g29
sS'MLH1_680'
p435
g100
sS'MLH1_683'
p436
g54
sS'MLH1_682'
p437
g92
sS'PMS2_269'
p438
g6
sS'PMS2_268'
p439
g141
sS'PMS2_669'
p440
g17
sS'PMS2_263'
p441
g13
sS'PMS2_262'
p442
g29
sS'PMS2_261'
p443
g11
sS'PMS2_260'
p444
g17
sS'PMS2_267'
p445
g54
sS'PMS2_266'
p446
g13
sS'PMS2_265'
p447
g52
sS'PMS2_264'
p448
g113
sS'MSH2_808'
p449
g2
sS'MSH6_627'
p450
g54
sS'PMS2_668'
p451
g6
sS'MSH6_626'
p452
g74
sS'MSH6_537'
p453
g41
sS'MSH6_625'
p454
g17
sS'PMS2_95'
p455
g54
sS'MSH6_624'
p456
g8
sS'MSH6_623'
p457
g15
sS'MSH6_622'
p458
g6
sS'PMS2_667'
p459
g2
sS'MSH6_621'
p460
g13
sS'MSH6_620'
p461
g8
sS'MSH2_82'
p462
g41
sS'MSH2_83'
p463
g92
sS'MSH2_80'
p464
g13
sS'MSH2_81'
p465
g17
sS'MSH2_86'
p466
g2
sS'MSH2_513'
p467
g13
sS'MSH2_84'
p468
g52
sS'MSH2_85'
p469
g54
sS'MSH2_88'
p470
g54
sS'MSH2_512'
p471
g41
sS'PMS2_600'
p472
g92
sS'PMS2_666'
p473
g41
sS'PMS2_298'
p474
g11
sS'MSH6_78'
p475
g178
sS'MSH6_1304'
p476
g178
sS'MSH2_807'
p477
g4
sS'MSH6_1306'
p478
g29
sS'MSH6_1307'
p479
g52
sS'MSH6_1300'
p480
g54
sS'MSH6_1301'
p481
g52
sS'MSH6_1302'
p482
g29
sS'MSH2_806'
p483
g4
sS'PMS2_835'
p484
g8
sS'MSH2_519'
p485
g54
sS'MSH6_479'
p486
g41
sS'MSH6_1308'
p487
g13
sS'MSH2_805'
p488
g13
sS'MSH2_518'
p489
g74
sS'MLH1_267'
p490
g33
sS'MLH1_266'
p491
g13
sS'MLH1_265'
p492
g178
sS'MLH1_264'
p493
g113
sS'MLH1_263'
p494
g52
sS'MLH1_262'
p495
g6
sS'MLH1_261'
p496
g54
sS'MLH1_260'
p497
g13
sS'MSH2_793'
p498
g74
sS'MSH2_792'
p499
g52
sS'MSH2_791'
p500
g29
sS'MSH2_790'
p501
g13
sS'MSH2_797'
p502
g33
sS'MSH2_796'
p503
g4
sS'MLH1_269'
p504
g17
sS'MLH1_268'
p505
g2
sS'MSH6_475'
p506
g74
sS'MSH2_801'
p507
g113
sS'MSH6_472'
p508
g17
sS'MSH2_800'
p509
g13
sS'PMS2_66'
p510
g6
sS'MSH6_473'
p511
g13
sS'MSH6_470'
p512
g17
sS'PMS2_140'
p513
g52
sS'MSH6_471'
p514
g11
sS'MSH6_1278'
p515
g15
sS'MSH6_1279'
p516
g17
sS'MSH6_931'
p517
g29
sS'MSH6_565'
p518
g13
sS'MSH6_1270'
p519
g92
sS'MSH6_1271'
p520
g33
sS'MSH6_1272'
p521
g2
sS'MSH6_1273'
p522
g52
sS'MSH6_1274'
p523
g2
sS'MSH6_1275'
p524
g100
sS'MSH6_1276'
p525
g2
sS'MSH6_1277'
p526
g11
sS'MSH2_879'
p527
g74
sS'MLH1_319'
p528
g2
sS'MLH1_318'
p529
g113
sS'PMS2_204'
p530
g52
sS'MLH1_313'
p531
g2
sS'MLH1_312'
p532
g113
sS'MLH1_311'
p533
g41
sS'MLH1_310'
p534
g4
sS'MLH1_317'
p535
g13
sS'MLH1_316'
p536
g54
sS'MLH1_315'
p537
g113
sS'MLH1_314'
p538
g33
sS'MSH6_656'
p539
g15
sS'MSH6_657'
p540
g74
sS'MSH6_654'
p541
g92
sS'MSH6_655'
p542
g13
sS'MSH6_652'
p543
g8
sS'MSH6_653'
p544
g33
sS'MSH6_650'
p545
g8
sS'MSH6_651'
p546
g6
sS'PMS2_753'
p547
g54
sS'MSH6_658'
p548
g33
sS'MSH2_876'
p549
g2
sS'PMS2_751'
p550
g54
sS'PMS2_146'
p551
g41
sS'PMS2_750'
p552
g8
sS'MSH6_1058'
p553
g11
sS'MSH6_1059'
p554
g33
sS'PMS2_617'
p555
g15
sS'MSH6_1054'
p556
g6
sS'MSH6_1055'
p557
g29
sS'MSH6_1056'
p558
g33
sS'MSH6_1057'
p559
g13
sS'MSH6_1050'
p560
g29
sS'MSH2_877'
p561
g178
sS'MSH6_1052'
p562
g2
sS'MSH6_1053'
p563
g100
sS'PMS2_147'
p564
g4
sS'PMS2_599'
p565
g11
sS'PMS2_102'
p566
g2
sS'PMS2_598'
p567
g74
sS'PMS2_660'
p568
g29
sS'MSH2_179'
p569
g15
sS'MSH2_178'
p570
g54
sS'MSH2_177'
p571
g2
sS'MSH2_176'
p572
g100
sS'MSH2_175'
p573
g13
sS'MSH2_174'
p574
g8
sS'MSH2_173'
p575
g13
sS'MSH2_172'
p576
g41
sS'MSH2_171'
p577
g178
sS'MSH2_170'
p578
g74
sS'PMS2_144'
p579
g6
sS'MSH6_879'
p580
g29
sS'PMS2_594'
p581
g13
sS'PMS2_597'
p582
g4
sS'PMS2_596'
p583
g52
sS'MSH2_875'
p584
g13
sS'PMS2_539'
p585
g29
sS'PMS2_145'
p586
g74
sS'PMS2_593'
p587
g41
sS'MSH6_873'
p588
g8
sS'PMS2_592'
p589
g74
sS'MSH6_508'
p590
g33
sS'MSH6_509'
p591
g33
sS'MSH6_506'
p592
g11
sS'MSH6_507'
p593
g178
sS'MSH6_504'
p594
g41
sS'MSH6_505'
p595
g141
sS'MSH6_502'
p596
g6
sS'MSH6_503'
p597
g17
sS'MSH6_500'
p598
g29
sS'MSH6_501'
p599
g113
sS'PMS2_397'
p600
g33
sS'MLH1_512'
p601
g2
sS'MSH6_875'
p602
g92
sS'PMS2_537'
p603
g2
sS'PMS2_744'
p604
g2
sS'PMS2_396'
p605
g92
sS'MLH1_515'
p606
g2
sS'MSH6_438'
p607
g92
sS'MSH6_439'
p608
g11
sS'MSH6_432'
p609
g54
sS'MSH6_433'
p610
g141
sS'MSH6_430'
p611
g8
sS'MSH6_431'
p612
g41
sS'MSH6_436'
p613
g141
sS'MSH6_437'
p614
g113
sS'MSH6_434'
p615
g2
sS'MSH6_435'
p616
g13
sS'PMS2_536'
p617
g74
sS'PMS2_745'
p618
g6
sS'PMS2_148'
p619
g15
sS'MLH1_514'
p620
g52
sS'MSH6_344'
p621
g74
sS'MSH6_345'
p622
g52
sS'MSH6_346'
p623
g17
sS'MSH6_347'
p624
g2
sS'MSH6_340'
p625
g54
sS'MSH6_341'
p626
g17
sS'MSH6_342'
p627
g29
sS'MSH6_343'
p628
g15
sS'MSH6_348'
p629
g17
sS'MSH6_349'
p630
g74
sS'MSH6_813'
p631
g41
sS'MLH1_461'
p632
g41
sS'MSH2_609'
p633
g29
sS'MLH1_463'
p634
g8
sS'MLH1_462'
p635
g178
sS'MLH1_465'
p636
g4
sS'MLH1_464'
p637
g15
sS'MLH1_467'
p638
g17
sS'MSH2_310'
p639
g13
sS'MLH1_469'
p640
g15
sS'MLH1_468'
p641
g52
sS'MSH2_319'
p642
g11
sS'MSH2_318'
p643
g2
sS'PMS2_653'
p644
g100
sS'MLH1_11'
p645
g13
sS'MLH1_10'
p646
g178
sS'MLH1_13'
p647
g2
sS'MLH1_12'
p648
g11
sS'MLH1_15'
p649
g33
sS'MLH1_14'
p650
g4
sS'MLH1_17'
p651
g52
sS'MLH1_16'
p652
g33
sS'MLH1_19'
p653
g6
sS'MLH1_18'
p654
g178
sS'PMS2_388'
p655
g113
sS'PMS2_389'
p656
g29
sS'PMS2_79'
p657
g52
sS'PMS2_78'
p658
g2
sS'PMS2_384'
p659
g13
sS'PMS2_385'
p660
g6
sS'PMS2_386'
p661
g41
sS'MSH6_534'
p662
g52
sS'PMS2_380'
p663
g33
sS'PMS2_381'
p664
g2
sS'PMS2_382'
p665
g8
sS'PMS2_383'
p666
g52
sS'MSH2_409'
p667
g74
sS'MSH2_408'
p668
g141
sS'PMS2_678'
p669
g6
sS'PMS2_679'
p670
g6
sS'MSH2_403'
p671
g11
sS'MSH2_402'
p672
g74
sS'MSH2_401'
p673
g13
sS'MSH2_400'
p674
g52
sS'MSH2_407'
p675
g13
sS'MSH2_406'
p676
g178
sS'MSH2_405'
p677
g141
sS'MSH2_404'
p678
g100
sS'PMS2_532'
p679
g113
sS'PMS2_814'
p680
g41
sS'PMS2_815'
p681
g17
sS'PMS2_816'
p682
g33
sS'PMS2_817'
p683
g92
sS'PMS2_810'
p684
g178
sS'PMS2_811'
p685
g29
sS'MSH6_452'
p686
g92
sS'PMS2_813'
p687
g178
sS'PMS2_818'
p688
g6
sS'MSH2_562'
p689
g2
sS'MSH2_563'
p690
g141
sS'MSH2_932'
p691
g33
sS'MSH6_222'
p692
g11
sS'PMS2_531'
p693
g2
sS'PMS2_742'
p694
g52
sS'MSH2_546'
p695
g41
sS'MSH2_547'
p696
g52
sS'MLH1_672'
p697
g100
sS'MSH2_545'
p698
g74
sS'MSH2_542'
p699
g33
sS'MSH2_543'
p700
g11
sS'MSH2_540'
p701
g17
sS'MSH2_541'
p702
g4
sS'MLH1_678'
p703
g41
sS'MLH1_679'
p704
g2
sS'MSH6_179'
p705
g29
sS'MSH2_548'
p706
g8
sS'MSH2_549'
p707
g33
sS'PMS2_700'
p708
g74
sS'MSH2_568'
p709
g4
sS'PMS2_702'
p710
g29
sS'MSH6_178'
p711
g178
sS'PMS2_704'
p712
g11
sS'PMS2_705'
p713
g2
sS'PMS2_258'
p714
g17
sS'MSH2_569'
p715
g2
sS'PMS2_256'
p716
g8
sS'PMS2_257'
p717
g13
sS'PMS2_254'
p718
g2
sS'MSH2_934'
p719
g4
sS'PMS2_252'
p720
g100
sS'PMS2_253'
p721
g2
sS'PMS2_250'
p722
g17
sS'PMS2_251'
p723
g33
sS'PMS2_471'
p724
g74
sS'PMS2_650'
p725
g29
sS'PMS2_476'
p726
g17
sS'PMS2_477'
p727
g17
sS'MSH6_173'
p728
g13
sS'MSH2_898'
p729
g2
sS'MSH2_899'
p730
g92
sS'MSH6_172'
p731
g6
sS'MSH2_894'
p732
g92
sS'MSH2_895'
p733
g15
sS'MSH2_896'
p734
g54
sS'MSH2_897'
p735
g4
sS'MSH2_890'
p736
g41
sS'MSH2_891'
p737
g33
sS'MSH2_892'
p738
g41
sS'MSH2_893'
p739
g74
sS'MSH6_170'
p740
g15
sS'MSH6_177'
p741
g74
sS'MSH6_176'
p742
g92
sS'MSH6_175'
p743
g29
sS'MSH6_174'
p744
g178
sS'PMS2_474'
p745
g29
sS'MSH2_79'
p746
g33
sS'MSH2_78'
p747
g33
sS'MSH2_77'
p748
g17
sS'MSH2_76'
p749
g74
sS'MSH2_75'
p750
g13
sS'MSH2_74'
p751
g52
sS'MSH2_73'
p752
g41
sS'MSH2_72'
p753
g29
sS'MSH2_71'
p754
g8
sS'MSH2_70'
p755
g29
sS'PMS2_378'
p756
g13
sS'PMS2_674'
p757
g29
sS'MLH1_258'
p758
g54
sS'MLH1_259'
p759
g13
sS'MSH2_848'
p760
g29
sS'MLH1_252'
p761
g17
sS'MLH1_253'
p762
g33
sS'MLH1_250'
p763
g52
sS'MLH1_251'
p764
g141
sS'MLH1_256'
p765
g100
sS'MLH1_257'
p766
g6
sS'MLH1_254'
p767
g41
sS'MLH1_255'
p768
g41
sS'MSH2_422'
p769
g2
sS'PMS2_675'
p770
g2
sS'MSH6_47'
p771
g11
sS'PMS2_493'
p772
g11
sS'MSH6_45'
p773
g8
sS'PMS2_356'
p774
g41
sS'MSH6_1199'
p775
g17
sS'MSH6_1198'
p776
g29
sS'MSH6_1195'
p777
g17
sS'MSH6_1194'
p778
g13
sS'MSH6_1197'
p779
g4
sS'MSH6_1196'
p780
g2
sS'MSH6_1191'
p781
g54
sS'MSH6_1190'
p782
g54
sS'MSH6_1193'
p783
g2
sS'MSH6_1192'
p784
g33
sS'MSH6_49'
p785
g29
sS'MSH6_1209'
p786
g13
sS'MSH6_1208'
p787
g17
sS'MSH6_1205'
p788
g4
sS'MSH6_1204'
p789
g29
sS'MSH6_1207'
p790
g113
sS'MSH6_1206'
p791
g29
sS'MSH6_1201'
p792
g13
sS'MSH6_1200'
p793
g6
sS'MSH6_1203'
p794
g113
sS'MSH6_1202'
p795
g92
sS'MLH1_328'
p796
g74
sS'MLH1_329'
p797
g113
sS'MLH1_326'
p798
g33
sS'MLH1_327'
p799
g74
sS'MLH1_324'
p800
g2
sS'MLH1_325'
p801
g178
sS'MLH1_322'
p802
g6
sS'MLH1_323'
p803
g13
sS'MLH1_320'
p804
g2
sS'MLH1_321'
p805
g17
sS'MSH2_506'
p806
g11
sS'MSH6_454'
p807
g8
sS'MSH6_925'
p808
g8
sS'MSH2_142'
p809
g17
sS'MSH2_143'
p810
g29
sS'MSH2_140'
p811
g11
sS'MSH2_141'
p812
g92
sS'MSH2_146'
p813
g8
sS'MSH2_147'
p814
g33
sS'MSH2_144'
p815
g17
sS'MSH2_145'
p816
g6
sS'MSH2_148'
p817
g33
sS'MSH2_149'
p818
g8
sS'MSH6_403'
p819
g13
sS'MSH6_923'
p820
g41
sS'PMS2_528'
p821
g8
sS'PMS2_43'
p822
g33
sS'MSH6_37'
p823
g29
sS'MSH6_36'
p824
g29
sS'MSH6_35'
p825
g29
sS'MSH6_34'
p826
g29
sS'MSH6_33'
p827
g178
sS'MSH6_32'
p828
g8
sS'MSH6_31'
p829
g8
sS'MSH6_30'
p830
g2
sS'MSH6_402'
p831
g54
sS'MSH6_39'
p832
g8
sS'MSH6_38'
p833
g15
sS'MSH6_649'
p834
g11
sS'MSH6_648'
p835
g17
sS'MSH6_641'
p836
g2
sS'MSH6_640'
p837
g2
sS'MSH6_643'
p838
g54
sS'MSH6_642'
p839
g141
sS'MSH6_645'
p840
g2
sS'MSH6_644'
p841
g178
sS'MSH6_647'
p842
g13
sS'MSH6_1103'
p843
g54
sS'MSH6_511'
p844
g178
sS'MSH6_510'
p845
g178
sS'MSH6_513'
p846
g6
sS'MSH6_512'
p847
g2
sS'MSH6_515'
p848
g178
sS'MSH6_514'
p849
g100
sS'MSH6_517'
p850
g6
sS'MSH6_516'
p851
g6
sS'MSH6_519'
p852
g41
sS'MSH6_518'
p853
g4
sS'PMS2_48'
p854
g11
sS'PMS2_49'
p855
g29
sS'PMS2_485'
p856
g4
sS'MSH6_429'
p857
g33
sS'MSH6_428'
p858
g41
sS'MSH6_425'
p859
g6
sS'MSH6_424'
p860
g33
sS'MSH6_427'
p861
g141
sS'MSH6_426'
p862
g100
sS'MSH6_421'
p863
g54
sS'MSH6_420'
p864
g52
sS'MSH6_423'
p865
g13
sS'MSH6_422'
p866
g11
sS'MSH6_987'
p867
g4
sS'PMS2_149'
p868
g141
sS'MSH6_455'
p869
g52
sS'MSH6_357'
p870
g11
sS'MSH6_356'
p871
g8
sS'MSH2_328'
p872
g29
sS'MSH2_329'
p873
g13
sS'MSH6_353'
p874
g17
sS'MSH6_352'
p875
g33
sS'MSH6_351'
p876
g113
sS'MSH6_350'
p877
g29
sS'MSH2_322'
p878
g8
sS'MSH2_323'
p879
g17
sS'MSH2_320'
p880
g4
sS'MSH2_321'
p881
g4
sS'MSH2_326'
p882
g13
sS'MSH2_327'
p883
g29
sS'MSH2_324'
p884
g74
sS'MSH2_325'
p885
g17
sS'MLH1_414'
p886
g2
sS'MLH1_415'
p887
g11
sS'MLH1_416'
p888
g41
sS'MLH1_417'
p889
g4
sS'MLH1_410'
p890
g29
sS'MLH1_411'
p891
g6
sS'MLH1_412'
p892
g33
sS'MLH1_413'
p893
g4
sS'MLH1_418'
p894
g11
sS'MLH1_419'
p895
g6
sS'MSH2_845'
p896
g41
sS'PMS2_175'
p897
g178
sS'PMS2_133'
p898
g4
sS'PMS2_132'
p899
g8
sS'PMS2_131'
p900
g33
sS'MSH6_564'
p901
g17
sS'MSH2_844'
p902
g29
sS'PMS2_526'
p903
g11
sS'PMS2_130'
p904
g41
sS'PMS2_68'
p905
g33
sS'PMS2_69'
p906
g17
sS'PMS2_174'
p907
g74
sS'PMS2_398'
p908
g2
sS'PMS2_387'
p909
g92
sS'PMS2_137'
p910
g54
sS'PMS2_395'
p911
g15
sS'PMS2_394'
p912
g41
sS'PMS2_393'
p913
g2
sS'PMS2_392'
p914
g13
sS'PMS2_391'
p915
g11
sS'PMS2_136'
p916
g92
sS'MLH1_528'
p917
g113
sS'MLH1_529'
p918
g17
sS'MSH2_452'
p919
g2
sS'MSH2_438'
p920
g4
sS'MSH2_439'
p921
g15
sS'MSH2_436'
p922
g54
sS'MSH2_437'
p923
g33
sS'MSH2_434'
p924
g29
sS'MSH2_435'
p925
g33
sS'MSH2_432'
p926
g13
sS'MSH2_433'
p927
g13
sS'MSH2_430'
p928
g41
sS'MSH2_431'
p929
g13
sS'PMS2_524'
p930
g15
sS'PMS2_173'
p931
g54
sS'PMS2_525'
p932
g8
sS'PMS2_139'
p933
g113
sS'PMS2_638'
p934
g74
sS'PMS2_806'
p935
g92
sS'PMS2_805'
p936
g74
sS'PMS2_138'
p937
g11
sS'PMS2_803'
p938
g33
sS'PMS2_802'
p939
g178
sS'MSH6_268'
p940
g11
sS'PMS2_800'
p941
g15
sS'MLH1_502'
p942
g52
sS'PMS2_520'
p943
g29
sS'PMS2_809'
p944
g17
sS'MLH1_503'
p945
g13
sS'MSH2_559'
p946
g13
sS'MSH2_558'
p947
g17
sS'PMS2_172'
p948
g2
sS'PMS2_522'
p949
g17
sS'MSH2_551'
p950
g54
sS'MSH2_550'
p951
g41
sS'MSH2_553'
p952
g52
sS'MSH2_552'
p953
g4
sS'MSH2_555'
p954
g41
sS'MSH2_554'
p955
g17
sS'MSH2_557'
p956
g4
sS'MSH2_556'
p957
g13
sS'MLH1_663'
p958
g2
sS'MLH1_662'
p959
g4
sS'MLH1_661'
p960
g29
sS'MLH1_660'
p961
g13
sS'MLH1_667'
p962
g11
sS'MLH1_666'
p963
g21
sS'MLH1_665'
p964
g52
sS'MLH1_664'
p965
g33
sS'MLH1_669'
p966
g2
sS'MLH1_668'
p967
g2
sS'PMS2_171'
p968
g41
sS'PMS2_240'
p969
g6
sS'PMS2_243'
p970
g33
sS'PMS2_242'
p971
g54
sS'PMS2_245'
p972
g13
sS'PMS2_244'
p973
g74
sS'PMS2_247'
p974
g15
sS'PMS2_246'
p975
g15
sS'PMS2_249'
p976
g11
sS'PMS2_248'
p977
g17
sS'PMS2_719'
p978
g74
sS'PMS2_718'
p979
g13
sS'MSH6_787'
p980
g29
sS'MSH6_560'
p981
g54
sS'PMS2_170'
p982
g113
sS'MSH2_889'
p983
g17
sS'MSH2_888'
p984
g13
sS'MSH2_887'
p985
g54
sS'MSH2_886'
p986
g2
sS'MSH2_885'
p987
g74
sS'MSH2_884'
p988
g6
sS'MSH2_883'
p989
g6
sS'MSH2_882'
p990
g41
sS'MSH2_881'
p991
g2
sS'MSH2_880'
p992
g8
sS'MSH6_561'
p993
g33
sS'PMS2_523'
p994
g17
sS'MSH2_68'
p995
g8
sS'MSH2_69'
p996
g15
sS'MSH2_64'
p997
g6
sS'MSH2_65'
p998
g41
sS'MSH2_66'
p999
g141
sS'MSH2_67'
p1000
g92
sS'MSH2_60'
p1001
g4
sS'MSH2_61'
p1002
g74
sS'MSH2_62'
p1003
g8
sS'MSH2_63'
p1004
g33
sS'MLH1_249'
p1005
g29
sS'MLH1_248'
p1006
g52
sS'MLH1_245'
p1007
g141
sS'MLH1_244'
p1008
g8
sS'MLH1_247'
p1009
g17
sS'MLH1_246'
p1010
g6
sS'MLH1_241'
p1011
g41
sS'MLH1_240'
p1012
g54
sS'MLH1_243'
p1013
g52
sS'MLH1_242'
p1014
g92
sS'MSH6_721'
p1015
g178
sS'MSH6_457'
p1016
g29
sS'MSH6_329'
p1017
g6
sS'PMS2_807'
p1018
g54
sS'PMS2_601'
p1019
g17
sS'MSH6_1188'
p1020
g17
sS'MSH6_1189'
p1021
g4
sS'MSH6_1186'
p1022
g8
sS'MSH6_1187'
p1023
g2
sS'MSH6_1184'
p1024
g92
sS'MSH6_1185'
p1025
g17
sS'MSH6_1182'
p1026
g178
sS'MSH6_1183'
p1027
g6
sS'MSH6_1180'
p1028
g17
sS'MSH6_1181'
p1029
g11
sS'MSH6_729'
p1030
g29
sS'MSH6_1218'
p1031
g8
sS'MSH2_795'
p1032
g15
sS'MSH6_1216'
p1033
g8
sS'MSH6_1217'
p1034
g178
sS'MSH6_1214'
p1035
g2
sS'MSH6_1215'
p1036
g13
sS'MSH6_1212'
p1037
g33
sS'MSH6_1051'
p1038
g33
sS'MSH6_1210'
p1039
g33
sS'MSH6_1211'
p1040
g13
sS'MLH1_331'
p1041
g2
sS'MLH1_330'
p1042
g6
sS'MLH1_333'
p1043
g41
sS'MLH1_332'
p1044
g17
sS'MLH1_335'
p1045
g13
sS'MLH1_334'
p1046
g13
sS'MLH1_337'
p1047
g17
sS'MLH1_336'
p1048
g8
sS'MLH1_339'
p1049
g17
sS'MLH1_338'
p1050
g52
sS'MSH6_646'
p1051
g41
sS'MSH2_794'
p1052
g6
sS'PMS2_603'
p1053
g17
sS'MLH1_641'
p1054
g13
sS'PMS2_559'
p1055
g8
sS'MLH1_640'
p1056
g15
sS'MSH2_535'
p1057
g52
sS'MSH2_788'
p1058
g4
sS'MLH1_642'
p1059
g13
sS'MSH2_789'
p1060
g29
sS'MLH1_645'
p1061
g52
sS'MSH2_22'
p1062
g54
sS'MLH1_644'
p1063
g11
sS'MSH6_102'
p1064
g8
sS'MSH2_23'
p1065
g54
sS'MLH1_647'
p1066
g33
sS'MSH6_103'
p1067
g141
sS'MSH2_865'
p1068
g6
sS'MSH2_530'
p1069
g2
sS'MSH6_100'
p1070
g92
sS'MSH2_864'
p1071
g11
sS'MSH2_155'
p1072
g33
sS'MSH2_154'
p1073
g29
sS'MSH2_157'
p1074
g8
sS'MSH2_156'
p1075
g11
sS'MSH2_151'
p1076
g41
sS'MSH2_150'
p1077
g33
sS'MSH2_153'
p1078
g17
sS'MSH2_152'
p1079
g92
sS'MSH6_748'
p1080
g52
sS'MSH6_106'
p1081
g21
sS'MSH2_866'
p1082
g92
sS'MSH2_159'
p1083
g178
sS'MSH2_158'
p1084
g74
sS'MSH6_107'
p1085
g15
sS'MSH2_28'
p1086
g2
sS'MSH6_104'
p1087
g15
sS'MSH2_29'
p1088
g41
sS'MSH6_105'
p1089
g21
sS'MSH6_24'
p1090
g17
sS'MSH6_25'
p1091
g29
sS'MSH6_26'
p1092
g178
sS'MSH6_27'
p1093
g29
sS'MSH6_20'
p1094
g29
sS'MSH6_21'
p1095
g52
sS'MSH6_22'
p1096
g41
sS'MSH6_23'
p1097
g29
sS'MSH6_1267'
p1098
g92
sS'MSH2_784'
p1099
g54
sS'MSH6_789'
p1100
g52
sS'MSH6_28'
p1101
g17
sS'MSH6_29'
p1102
g178
sS'MSH2_785'
p1103
g113
sS'MSH6_988'
p1104
g178
sS'MSH6_989'
p1105
g52
sS'MSH6_638'
p1106
g13
sS'MSH6_639'
p1107
g2
sS'PMS2_730'
p1108
g52
sS'MSH6_634'
p1109
g13
sS'MSH6_635'
p1110
g178
sS'MSH6_636'
p1111
g4
sS'MSH6_637'
p1112
g13
sS'MSH6_630'
p1113
g29
sS'MSH6_631'
p1114
g17
sS'MSH6_632'
p1115
g41
sS'MSH6_633'
p1116
g4
sS'MSH6_296'
p1117
g33
sS'MSH6_297'
p1118
g29
sS'MSH6_294'
p1119
g33
sS'MSH6_295'
p1120
g41
sS'MSH6_292'
p1121
g17
sS'MSH6_293'
p1122
g15
sS'MSH6_290'
p1123
g13
sS'MSH6_291'
p1124
g52
sS'MSH6_568'
p1125
g54
sS'MSH6_569'
p1126
g54
sS'MSH6_298'
p1127
g178
sS'MSH6_299'
p1128
g41
sS'MSH6_691'
p1129
g13
sS'PMS2_736'
p1130
g2
sS'PMS2_225'
p1131
g2
sS'MSH6_182'
p1132
g29
sS'MSH6_183'
p1133
g13
sS'MSH6_180'
p1134
g11
sS'MSH6_181'
p1135
g2
sS'MSH6_186'
p1136
g11
sS'MSH6_187'
p1137
g41
sS'MSH6_184'
p1138
g52
sS'MSH6_185'
p1139
g41
sS'MSH6_188'
p1140
g6
sS'MSH6_189'
p1141
g41
sS'MSH6_368'
p1142
g2
sS'MSH6_369'
p1143
g4
sS'PMS2_636'
p1144
g29
sS'MSH6_362'
p1145
g15
sS'MSH6_363'
p1146
g4
sS'MSH6_360'
p1147
g17
sS'MSH6_361'
p1148
g178
sS'MSH6_366'
p1149
g141
sS'MSH6_367'
p1150
g113
sS'MSH6_364'
p1151
g33
sS'MSH6_365'
p1152
g21
sS'MSH6_168'
p1153
g29
sS'MSH6_169'
p1154
g41
sS'MSH2_339'
p1155
g74
sS'MSH2_338'
p1156
g8
sS'MSH6_520'
p1157
g8
sS'MSH2_335'
p1158
g4
sS'MSH2_334'
p1159
g41
sS'MSH2_337'
p1160
g74
sS'MSH2_336'
p1161
g15
sS'MSH2_331'
p1162
g52
sS'MSH2_330'
p1163
g13
sS'MSH2_333'
p1164
g100
sS'MSH2_332'
p1165
g41
sS'MLH1_407'
p1166
g74
sS'MLH1_406'
p1167
g17
sS'MLH1_405'
p1168
g17
sS'MLH1_404'
p1169
g13
sS'MLH1_403'
p1170
g15
sS'MLH1_402'
p1171
g41
sS'MLH1_401'
p1172
g17
sS'MLH1_400'
p1173
g13
sS'PMS2_164'
p1174
g17
sS'MLH1_409'
p1175
g74
sS'MLH1_408'
p1176
g15
sS'MSH2_855'
p1177
g74
sS'MLH1_79'
p1178
g178
sS'MLH1_78'
p1179
g2
sS'MLH1_73'
p1180
g13
sS'MLH1_72'
p1181
g11
sS'MLH1_71'
p1182
g2
sS'MLH1_70'
p1183
g41
sS'MLH1_77'
p1184
g100
sS'MLH1_76'
p1185
g33
sS'MLH1_75'
p1186
g6
sS'MLH1_74'
p1187
g11
sS'MLH1_5'
p1188
g29
sS'MLH1_4'
p1189
g33
sS'MLH1_7'
p1190
g33
sS'MLH1_6'
p1191
g8
sS'MLH1_1'
p1192
g92
sS'MLH1_3'
p1193
g54
sS'MLH1_2'
p1194
g17
sS'PMS2_51'
p1195
g29
sS'PMS2_50'
p1196
g8
sS'PMS2_53'
p1197
g52
sS'PMS2_52'
p1198
g4
sS'MLH1_9'
p1199
g178
sS'MLH1_8'
p1200
g6
sS'PMS2_57'
p1201
g41
sS'PMS2_56'
p1202
g13
sS'MSH2_421'
p1203
g13
sS'MSH2_420'
p1204
g29
sS'MSH2_423'
p1205
g41
sS'MLH1_538'
p1206
g21
sS'MSH2_425'
p1207
g2
sS'MSH2_424'
p1208
g113
sS'MSH2_427'
p1209
g41
sS'MSH2_426'
p1210
g8
sS'MLH1_533'
p1211
g100
sS'MLH1_532'
p1212
g8
sS'MLH1_531'
p1213
g33
sS'MLH1_530'
p1214
g54
sS'MLH1_537'
p1215
g74
sS'MLH1_536'
p1216
g15
sS'MLH1_535'
p1217
g52
sS'MLH1_534'
p1218
g33
sS'MSH6_857'
p1219
g11
sS'MSH6_850'
p1220
g141
sS'MSH6_851'
p1221
g17
sS'PMS2_853'
p1222
g6
sS'PMS2_167'
p1223
g15
sS'MSH6_852'
p1224
g41
sS'MSH6_214'
p1225
g141
sS'MSH6_853'
p1226
g41
sS'PMS2_855'
p1227
g52
sS'MSH2_528'
p1228
g41
sS'MSH2_529'
p1229
g2
sS'MSH2_524'
p1230
g178
sS'MSH2_525'
p1231
g33
sS'MSH2_526'
p1232
g4
sS'MSH2_527'
p1233
g100
sS'MSH2_520'
p1234
g8
sS'MSH2_521'
p1235
g141
sS'MSH2_522'
p1236
g141
sS'MSH2_523'
p1237
g54
sS'MLH1_656'
p1238
g54
sS'MLH1_657'
p1239
g6
sS'MLH1_654'
p1240
g15
sS'MLH1_655'
p1241
g6
sS'MLH1_652'
p1242
g8
sS'MLH1_653'
p1243
g13
sS'MLH1_650'
p1244
g13
sS'MLH1_651'
p1245
g2
sS'MSH6_215'
p1246
g33
sS'PMS2_295'
p1247
g178
sS'MLH1_658'
p1248
g13
sS'MLH1_659'
p1249
g178
sS'PMS2_234'
p1250
g41
sS'PMS2_235'
p1251
g74
sS'PMS2_236'
p1252
g13
sS'PMS2_237'
p1253
g74
sS'PMS2_230'
p1254
g33
sS'PMS2_231'
p1255
g54
sS'PMS2_232'
p1256
g8
sS'PMS2_233'
p1257
g74
sS'PMS2_238'
p1258
g17
sS'PMS2_239'
p1259
g13
sS'PMS2_728'
p1260
g4
sS'PMS2_729'
p1261
g13
sS'PMS2_161'
p1262
g74
sS'PMS2_466'
p1263
g8
sS'PMS2_7'
p1264
g17
sS'PMS2_641'
p1265
g8
sS'MSH6_800'
p1266
g33
sS'PMS2_100'
p1267
g74
sS'PMS2_162'
p1268
g13
sS'MSH2_630'
p1269
g8
sS'MSH2_631'
p1270
g178
sS'MSH2_632'
p1271
g6
sS'MSH2_633'
p1272
g6
sS'MSH2_634'
p1273
g13
sS'MSH2_635'
p1274
g41
sS'MSH2_636'
p1275
g29
sS'MSH2_637'
p1276
g17
sS'MSH2_638'
p1277
g178
sS'MSH2_639'
p1278
g113
sS'PMS2_348'
p1279
g2
sS'PMS2_349'
p1280
g41
sS'PMS2_838'
p1281
g11
sS'MSH6_164'
p1282
g113
sS'PMS2_557'
p1283
g11
sS'PMS2_340'
p1284
g41
sS'PMS2_341'
p1285
g178
sS'PMS2_342'
p1286
g74
sS'MSH2_9'
p1287
g13
sS'PMS2_163'
p1288
g54
sS'PMS2_345'
p1289
g13
sS'PMS2_346'
p1290
g74
sS'MSH2_849'
p1291
g13
sS'MSH2_59'
p1292
g41
sS'MSH2_58'
p1293
g54
sS'MSH6_210'
p1294
g33
sS'MSH2_51'
p1295
g13
sS'MSH2_50'
p1296
g29
sS'MSH2_53'
p1297
g29
sS'MSH2_52'
p1298
g13
sS'MSH2_55'
p1299
g178
sS'MSH2_54'
p1300
g29
sS'MSH2_57'
p1301
g33
sS'MSH2_56'
p1302
g2
sS'PMS2_556'
p1303
g2
sS'MSH2_8'
p1304
g4
sS'MSH6_211'
p1305
g8
sS'PMS2_142'
p1306
g41
sS'PMS2_143'
p1307
g6
sS'MSH2_819'
p1308
g41
sS'MSH6_355'
p1309
g8
sS'PMS2_639'
p1310
g17
sS'MSH6_354'
p1311
g8
sS'MSH6_1269'
p1312
g100
sS'MLH1_559'
p1313
g13
sS'MSH6_1268'
p1314
g29
sS'MSH6_974'
p1315
g178
sS'MLH1_558'
p1316
g2
sS'MSH6_218'
p1317
g41
sS'MSH6_219'
p1318
g17
sS'MSH6_661'
p1319
g8
sS'MSH6_216'
p1320
g4
sS'PMS2_727'
p1321
g74
sS'MSH6_217'
p1322
g11
sS'MLH1_557'
p1323
g2
sS'MSH6_854'
p1324
g41
sS'MSH6_1223'
p1325
g11
sS'MSH6_1222'
p1326
g54
sS'MSH6_1221'
p1327
g4
sS'MLH1_556'
p1328
g17
sS'MSH6_1227'
p1329
g6
sS'MSH6_1226'
p1330
g29
sS'MSH6_1225'
p1331
g4
sS'MSH6_1224'
p1332
g8
sS'MSH6_807'
p1333
g2
sS'MSH6_212'
p1334
g4
sS'MSH6_1229'
p1335
g52
sS'MSH6_1228'
p1336
g29
sS'MSH6_213'
p1337
g4
sS'MLH1_344'
p1338
g54
sS'MLH1_345'
p1339
g4
sS'MLH1_346'
p1340
g74
sS'MLH1_347'
p1341
g4
sS'MLH1_340'
p1342
g17
sS'MLH1_341'
p1343
g178
sS'MLH1_342'
p1344
g92
sS'MLH1_343'
p1345
g141
sS'MSH2_850'
p1346
g2
sS'MSH2_851'
p1347
g13
sS'MSH2_852'
p1348
g2
sS'MSH2_853'
p1349
g2
sS'MLH1_348'
p1350
g13
sS'MLH1_349'
p1351
g13
sS'MSH2_856'
p1352
g141
sS'MSH2_857'
p1353
g6
sS'MSH6_146'
p1354
g178
sS'PMS2_659'
p1355
g29
sS'PMS2_825'
p1356
g17
sS'MSH6_947'
p1357
g52
sS'PMS2_824'
p1358
g4
sS'PMS2_827'
p1359
g92
sS'MSH6_1087'
p1360
g15
sS'MSH6_1086'
p1361
g15
sS'MSH6_1085'
p1362
g4
sS'MSH6_1084'
p1363
g11
sS'MSH6_1083'
p1364
g2
sS'MSH6_1082'
p1365
g15
sS'MSH6_1081'
p1366
g13
sS'MSH6_1080'
p1367
g13
sS'PMS2_821'
p1368
g29
sS'MSH6_1089'
p1369
g13
sS'MLH1_456'
p1370
g17
sS'MSH6_944'
p1371
g6
sS'PMS2_823'
p1372
g52
sS'PMS2_822'
p1373
g13
sS'MSH6_144'
p1374
g17
sS'MSH6_752'
p1375
g8
sS'MSH6_751'
p1376
g52
sS'MSH6_750'
p1377
g4
sS'MSH6_757'
p1378
g4
sS'MSH6_756'
p1379
g8
sS'MSH6_755'
p1380
g2
sS'MSH6_754'
p1381
g4
sS'MSH6_759'
p1382
g13
sS'MSH6_758'
p1383
g13
sS'MSH6_945'
p1384
g178
sS'MSH6_523'
p1385
g4
sS'MSH6_11'
p1386
g54
sS'MSH6_10'
p1387
g54
sS'MSH6_13'
p1388
g41
sS'MSH6_12'
p1389
g15
sS'MSH6_15'
p1390
g15
sS'MSH6_14'
p1391
g17
sS'MSH6_17'
p1392
g13
sS'MSH6_16'
p1393
g29
sS'MSH6_19'
p1394
g11
sS'MSH6_18'
p1395
g17
sS'MSH2_854'
p1396
g54
sS'MSH6_942'
p1397
g29
sS'MSH6_1159'
p1398
g141
sS'MSH6_1158'
p1399
g100
sS'MSH6_999'
p1400
g4
sS'MSH6_998'
p1401
g17
sS'MSH6_629'
p1402
g11
sS'MSH6_628'
p1403
g21
sS'MSH6_1151'
p1404
g29
sS'MSH6_1150'
p1405
g13
sS'MSH6_1153'
p1406
g92
sS'MSH6_1152'
p1407
g33
sS'MSH6_1155'
p1408
g74
sS'MSH6_1154'
p1409
g29
sS'MSH6_1157'
p1410
g8
sS'MSH6_1156'
p1411
g92
sS'MSH6_577'
p1412
g178
sS'MSH6_576'
p1413
g11
sS'MSH6_575'
p1414
g11
sS'MSH6_574'
p1415
g17
sS'MSH6_573'
p1416
g54
sS'MSH6_572'
p1417
g74
sS'MSH6_571'
p1418
g8
sS'MSH6_570'
p1419
g6
sS'MSH6_229'
p1420
g2
sS'MSH6_943'
p1421
g11
sS'MSH6_579'
p1422
g100
sS'MSH6_578'
p1423
g113
sS'MSH6_228'
p1424
g2
sS'MSH6_195'
p1425
g33
sS'MSH6_194'
p1426
g29
sS'MSH6_197'
p1427
g11
sS'MSH6_196'
p1428
g100
sS'MSH6_191'
p1429
g13
sS'MSH6_190'
p1430
g178
sS'MSH6_193'
p1431
g13
sS'MSH6_192'
p1432
g2
sS'MSH6_140'
p1433
g178
sS'MSH6_199'
p1434
g15
sS'MSH6_198'
p1435
g2
sS'MSH6_379'
p1436
g178
sS'MSH6_378'
p1437
g178
sS'MSH6_941'
p1438
g13
sS'MSH6_375'
p1439
g2
sS'MSH6_374'
p1440
g41
sS'MSH6_377'
p1441
g41
sS'MSH6_376'
p1442
g2
sS'MSH6_371'
p1443
g2
sS'MSH6_370'
p1444
g13
sS'MSH6_373'
p1445
g13
sS'MSH6_372'
p1446
g21
sS'MLH1_438'
p1447
g29
sS'MLH1_439'
p1448
g2
sS'MSH6_141'
p1449
g8
sS'MLH1_432'
p1450
g13
sS'MLH1_433'
p1451
g2
sS'MLH1_430'
p1452
g2
sS'MLH1_431'
p1453
g92
sS'MLH1_436'
p1454
g29
sS'MLH1_437'
p1455
g15
sS'MLH1_434'
p1456
g13
sS'MLH1_435'
p1457
g15
sS'MSH6_946'
p1458
g2
sS'MSH2_188'
p1459
g2
sS'MSH2_189'
p1460
g29
sS'MSH2_186'
p1461
g52
sS'MSH2_187'
p1462
g13
sS'MSH2_184'
p1463
g54
sS'MSH2_185'
p1464
g17
sS'MSH2_182'
p1465
g11
sS'MSH2_183'
p1466
g74
sS'MSH2_180'
p1467
g11
sS'MSH2_181'
p1468
g52
sS'MSH6_289'
p1469
g8
sS'MSH6_288'
p1470
g2
sS'MSH6_713'
p1471
g11
sS'MSH6_281'
p1472
g8
sS'MSH6_280'
p1473
g17
sS'MSH6_283'
p1474
g8
sS'MSH6_282'
p1475
g33
sS'MSH6_285'
p1476
g17
sS'MSH6_284'
p1477
g11
sS'MSH6_287'
p1478
g17
sS'MSH6_286'
p1479
g2
sS'MLH1_68'
p1480
g6
sS'MLH1_69'
p1481
g178
sS'PMS2_44'
p1482
g2
sS'PMS2_45'
p1483
g52
sS'PMS2_42'
p1484
g13
sS'MSH6_940'
p1485
g29
sS'PMS2_40'
p1486
g41
sS'PMS2_41'
p1487
g2
sS'MLH1_60'
p1488
g74
sS'MLH1_61'
p1489
g6
sS'MLH1_62'
p1490
g74
sS'MLH1_63'
p1491
g11
sS'MLH1_64'
p1492
g52
sS'MLH1_65'
p1493
g8
sS'MLH1_66'
p1494
g4
sS'MLH1_67'
p1495
g8
sS'PMS2_686'
p1496
g54
sS'PMS2_111'
p1497
g13
sS'MSH2_454'
p1498
g6
sS'MSH2_455'
p1499
g2
sS'MSH2_456'
p1500
g4
sS'MSH2_457'
p1501
g4
sS'MSH2_450'
p1502
g54
sS'MSH2_451'
p1503
g74
sS'MLH1_508'
p1504
g17
sS'MLH1_509'
p1505
g13
sS'MLH1_506'
p1506
g33
sS'MLH1_507'
p1507
g13
sS'MLH1_504'
p1508
g4
sS'MLH1_505'
p1509
g17
sS'MSH2_458'
p1510
g13
sS'MSH2_459'
p1511
g11
sS'MLH1_500'
p1512
g6
sS'MLH1_501'
p1513
g6
sS'PMS2_110'
p1514
g29
sS'MSH6_223'
p1515
g52
sS'MSH2_732'
p1516
g4
sS'PMS2_399'
p1517
g41
sS'MSH2_608'
p1518
g54
sS'MLH1_649'
p1519
g15
sS'MLH1_648'
p1520
g15
sS'MSH2_539'
p1521
g54
sS'MSH2_538'
p1522
g52
sS'MSH2_537'
p1523
g41
sS'MSH2_536'
p1524
g52
sS'MLH1_643'
p1525
g6
sS'MSH2_534'
p1526
g178
sS'MSH2_533'
p1527
g13
sS'MSH2_532'
p1528
g33
sS'MSH2_531'
p1529
g41
sS'MLH1_646'
p1530
g141
sS'PMS2_739'
p1531
g13
sS'PMS2_738'
p1532
g33
sS'PMS2_67'
p1533
g2
sS'PMS2_731'
p1534
g13
sS'PMS2_60'
p1535
g11
sS'PMS2_733'
p1536
g29
sS'PMS2_732'
p1537
g4
sS'PMS2_735'
p1538
g52
sS'PMS2_734'
p1539
g33
sS'PMS2_737'
p1540
g29
sS'PMS2_61'
p1541
g141
sS'PMS2_227'
p1542
g6
sS'PMS2_226'
p1543
g52
sS'PMS2_112'
p1544
g17
sS'PMS2_224'
p1545
g41
sS'PMS2_223'
p1546
g6
sS'PMS2_222'
p1547
g17
sS'PMS2_221'
p1548
g15
sS'PMS2_220'
p1549
g17
sS'PMS2_390'
p1550
g29
sS'PMS2_229'
p1551
g17
sS'PMS2_228'
p1552
g8
sS'PMS2_299'
p1553
g15
sS'MSH2_863'
p1554
g141
sS'MSH6_409'
p1555
g8
sS'MSH6_408'
p1556
g15
sS'MSH2_623'
p1557
g29
sS'MSH2_622'
p1558
g15
sS'MSH2_621'
p1559
g178
sS'MSH2_620'
p1560
g33
sS'MSH2_627'
p1561
g41
sS'MSH2_626'
p1562
g2
sS'MSH2_625'
p1563
g13
sS'MSH2_624'
p1564
g6
sS'MSH2_629'
p1565
g74
sS'MSH2_628'
p1566
g8
sS'MLH1_520'
p1567
g33
sS'PMS2_359'
p1568
g13
sS'PMS2_358'
p1569
g17
sS'PMS2_829'
p1570
g41
sS'PMS2_828'
p1571
g41
sS'MSH6_1358'
p1572
g41
sS'MLH1_521'
p1573
g13
sS'PMS2_353'
p1574
g29
sS'PMS2_352'
p1575
g13
sS'PMS2_351'
p1576
g13
sS'PMS2_350'
p1577
g13
sS'PMS2_357'
p1578
g4
sS'MLH1_522'
p1579
g178
sS'PMS2_355'
p1580
g13
sS'PMS2_354'
p1581
g33
sS'MLH1_523'
p1582
g2
sS'PMS2_663'
p1583
g2
sS'MLH1_524'
p1584
g92
sS'MSH6_790'
p1585
g11
sS'MLH1_525'
p1586
g13
sS'MLH1_526'
p1587
g113
sS'MLH1_527'
p1588
g52
sS'PMS2_546'
p1589
g54
sS'PMS2_547'
p1590
g17
sS'PMS2_116'
p1591
g29
sS'MSH6_225'
p1592
g6
sS'PMS2_74'
p1593
g8
sS'PMS2_541'
p1594
g41
sS'MSH6_880'
p1595
g11
sS'PMS2_530'
p1596
g74
sS'MSH6_526'
p1597
g33
sS'MSH6_886'
p1598
g6
sS'MSH6_1234'
p1599
g2
sS'MSH6_1235'
p1600
g13
sS'MSH6_1236'
p1601
g29
sS'MSH6_1237'
p1602
g2
sS'MSH6_1230'
p1603
g29
sS'MSH6_1231'
p1604
g33
sS'MSH6_1232'
p1605
g33
sS'MSH6_1233'
p1606
g41
sS'PMS2_589'
p1607
g11
sS'MSH6_1238'
p1608
g4
sS'MSH6_1239'
p1609
g6
sS'MLH1_357'
p1610
g8
sS'MLH1_356'
p1611
g17
sS'MLH1_355'
p1612
g15
sS'MLH1_354'
p1613
g8
sS'MLH1_353'
p1614
g29
sS'MLH1_352'
p1615
g13
sS'MSH2_40'
p1616
g8
sS'MSH2_41'
p1617
g11
sS'MSH2_843'
p1618
g100
sS'MSH2_842'
p1619
g2
sS'MSH2_841'
p1620
g6
sS'MSH2_840'
p1621
g33
sS'MSH2_847'
p1622
g41
sS'MSH2_846'
p1623
g74
sS'MLH1_359'
p1624
g92
sS'MLH1_358'
p1625
g2
sS'PMS2_712'
p1626
g13
sS'MSH6_1098'
p1627
g100
sS'MSH6_1099'
p1628
g6
sS'PMS2_804'
p1629
g41
sS'MSH6_1090'
p1630
g2
sS'MSH6_1091'
p1631
g13
sS'MSH6_1092'
p1632
g41
sS'MSH6_1093'
p1633
g8
sS'MSH6_1094'
p1634
g17
sS'MSH6_1095'
p1635
g178
sS'MSH6_1096'
p1636
g113
sS'MSH6_1097'
p1637
g15
sS'MSH6_973'
p1638
g8
sS'PMS2_801'
p1639
g17
sS'MSH6_766'
p1640
g113
sS'MSH6_767'
p1641
g4
sS'MSH6_764'
p1642
g4
sS'MSH6_765'
p1643
g100
sS'MSH6_762'
p1644
g33
sS'MSH6_763'
p1645
g11
sS'MSH6_760'
p1646
g2
sS'MSH6_761'
p1647
g178
sS'MSH6_768'
p1648
g15
sS'MSH6_769'
p1649
g54
sS'MSH2_605'
p1650
g33
sS'PMS2_808'
p1651
g29
sS'MSH6_971'
p1652
g8
sS'MSH6_171'
p1653
g2
sS'MSH6_612'
p1654
g17
sS'MSH6_613'
p1655
g13
sS'MSH2_604'
p1656
g29
sS'MSH6_1149'
p1657
g13
sS'MSH6_616'
p1658
g17
sS'MSH6_617'
p1659
g13
sS'MSH6_614'
p1660
g17
sS'MSH6_615'
p1661
g100
sS'MSH6_1142'
p1662
g4
sS'MSH2_656'
p1663
g141
sS'MSH6_1140'
p1664
g41
sS'MSH6_1141'
p1665
g17
sS'MSH6_1146'
p1666
g74
sS'MSH6_1147'
p1667
g29
sS'MSH6_1144'
p1668
g92
sS'MSH2_657'
p1669
g54
sS'MSH6_1330'
p1670
g13
sS'MSH6_538'
p1671
g141
sS'PMS2_177'
p1672
g6
sS'MSH2_658'
p1673
g2
sS'MSH2_46'
p1674
g113
sS'MSH2_659'
p1675
g41
sS'MSH2_47'
p1676
g8
sS'MSH2_44'
p1677
g4
sS'MSH6_533'
p1678
g2
sS'MSH2_45'
p1679
g29
sS'PMS2_714'
p1680
g74
sS'MSH6_532'
p1681
g17
sS'MSH2_42'
p1682
g54
sS'MSH6_976'
p1683
g178
sS'MSH6_531'
p1684
g15
sS'MSH2_43'
p1685
g141
sS'MSH6_380'
p1686
g11
sS'MSH6_381'
p1687
g2
sS'MSH6_382'
p1688
g113
sS'MSH6_383'
p1689
g178
sS'MSH6_384'
p1690
g178
sS'MLH1_351'
p1691
g8
sS'MSH6_386'
p1692
g15
sS'MSH6_387'
p1693
g11
sS'MSH6_388'
p1694
g113
sS'MSH6_389'
p1695
g15
sS'MLH1_350'
p1696
g15
sS'PMS2_481'
p1697
g15
sS'MSH6_240'
p1698
g178
sS'PMS2_480'
p1699
g8
sS'MLH1_429'
p1700
g2
sS'MLH1_428'
p1701
g11
sS'MSH6_148'
p1702
g13
sS'MSH6_149'
p1703
g41
sS'MLH1_425'
p1704
g178
sS'MLH1_424'
p1705
g29
sS'MLH1_427'
p1706
g74
sS'MLH1_426'
p1707
g74
sS'MLH1_421'
p1708
g17
sS'MLH1_420'
p1709
g17
sS'MLH1_423'
p1710
g178
sS'MLH1_422'
p1711
g8
sS'MSH2_191'
p1712
g13
sS'MSH2_190'
p1713
g13
sS'MSH2_193'
p1714
g74
sS'MSH2_192'
p1715
g6
sS'MSH2_195'
p1716
g8
sS'MSH2_194'
p1717
g6
sS'MSH2_197'
p1718
g41
sS'MSH2_196'
p1719
g15
sS'MSH2_199'
p1720
g100
sS'MSH2_198'
p1721
g2
sS'PMS2_484'
p1722
g15
sS'MSH6_818'
p1723
g13
sS'MSH6_819'
p1724
g2
sS'MSH6_548'
p1725
g11
sS'MSH6_549'
p1726
g17
sS'MSH2_48'
p1727
g2
sS'MSH6_542'
p1728
g13
sS'MSH6_543'
p1729
g41
sS'MSH6_540'
p1730
g13
sS'MSH2_49'
p1731
g11
sS'MSH6_546'
p1732
g2
sS'MSH6_547'
p1733
g2
sS'MSH6_544'
p1734
g2
sS'MSH6_545'
p1735
g41
sS'PMS2_33'
p1736
g13
sS'PMS2_32'
p1737
g33
sS'PMS2_31'
p1738
g33
sS'PMS2_30'
p1739
g74
sS'PMS2_37'
p1740
g4
sS'PMS2_36'
p1741
g17
sS'PMS2_35'
p1742
g13
sS'PMS2_34'
p1743
g17
sS'PMS2_39'
p1744
g33
sS'PMS2_38'
p1745
g29
sS'MSH6_478'
p1746
g141
sS'MSH2_447'
p1747
g54
sS'MSH2_446'
p1748
g11
sS'MSH2_445'
p1749
g17
sS'MSH2_444'
p1750
g178
sS'MSH2_443'
p1751
g13
sS'MSH2_442'
p1752
g11
sS'MLH1_517'
p1753
g8
sS'MSH2_440'
p1754
g13
sS'MLH1_519'
p1755
g2
sS'MLH1_518'
p1756
g113
sS'PMS2_711'
p1757
g92
sS'MSH2_449'
p1758
g41
sS'MSH2_448'
p1759
g17
sS'PMS2_176'
p1760
g52
sS'PMS2_710'
p1761
g2
sS'PMS2_717'
p1762
g33
sS'PMS2_103'
p1763
g4
sS'PMS2_716'
p1764
g4
sS'PMS2_715'
p1765
g113
sS'PMS2_698'
p1766
g33
sS'PMS2_699'
p1767
g11
sS'PMS2_696'
p1768
g54
sS'PMS2_697'
p1769
g6
sS'PMS2_694'
p1770
g11
sS'PMS2_695'
p1771
g6
sS'PMS2_692'
p1772
g52
sS'PMS2_693'
p1773
g2
sS'PMS2_690'
p1774
g41
sS'MSH6_979'
p1775
g13
sS'MSH2_502'
p1776
g11
sS'MSH2_503'
p1777
g13
sS'MSH2_500'
p1778
g29
sS'MSH2_501'
p1779
g178
sS'MLH1_638'
p1780
g8
sS'MLH1_639'
p1781
g13
sS'MSH2_504'
p1782
g8
sS'MSH2_505'
p1783
g13
sS'MLH1_634'
p1784
g8
sS'MLH1_635'
p1785
g52
sS'MSH2_508'
p1786
g8
sS'MSH2_509'
p1787
g41
sS'MLH1_630'
p1788
g6
sS'MLH1_631'
p1789
g11
sS'MLH1_632'
p1790
g2
sS'MLH1_633'
p1791
g2
sS'PMS2_218'
p1792
g8
sS'PMS2_219'
p1793
g8
sS'PMS2_748'
p1794
g41
sS'PMS2_749'
p1795
g52
sS'MSH6_98'
p1796
g29
sS'PMS2_212'
p1797
g74
sS'PMS2_213'
p1798
g15
sS'PMS2_210'
p1799
g41
sS'PMS2_211'
p1800
g178
sS'PMS2_216'
p1801
g100
sS'PMS2_217'
p1802
g4
sS'MSH6_477'
p1803
g8
sS'PMS2_215'
p1804
g33
sS'MLH1_55'
p1805
g8
sS'MLH1_54'
p1806
g8
sS'MLH1_57'
p1807
g41
sS'MLH1_56'
p1808
g13
sS'MLH1_51'
p1809
g33
sS'MLH1_50'
p1810
g6
sS'MLH1_53'
p1811
g2
sS'MLH1_52'
p1812
g41
sS'PMS2_582'
p1813
g2
sS'PMS2_583'
p1814
g2
sS'PMS2_580'
p1815
g41
sS'PMS2_487'
p1816
g178
sS'MLH1_59'
p1817
g6
sS'MLH1_58'
p1818
g13
sS'PMS2_584'
p1819
g6
sS'PMS2_585'
p1820
g13
sS'MSH6_962'
p1821
g6
sS'PMS2_548'
p1822
g11
sS'MSH6_474'
p1823
g33
sS'MLH1_182'
p1824
g178
sS'MLH1_183'
p1825
g141
sS'MLH1_180'
p1826
g33
sS'MLH1_181'
p1827
g8
sS'MLH1_186'
p1828
g113
sS'MLH1_187'
p1829
g52
sS'MLH1_184'
p1830
g17
sS'MLH1_185'
p1831
g33
sS'PMS2_486'
p1832
g11
sS'MLH1_188'
p1833
g29
sS'MLH1_189'
p1834
g8
sS'MSH2_616'
p1835
g15
sS'MSH2_617'
p1836
g33
sS'MLH1_742'
p1837
g74
sS'MLH1_743'
p1838
g13
sS'MLH1_744'
p1839
g29
sS'MLH1_745'
p1840
g52
sS'MSH2_610'
p1841
g113
sS'MSH2_611'
p1842
g33
sS'MLH1_748'
p1843
g11
sS'MLH1_749'
p1844
g13
sS'MSH2_3'
p1845
g33
sS'MSH2_2'
p1846
g29
sS'MSH2_5'
p1847
g15
sS'MSH2_4'
p1848
g74
sS'MSH2_618'
p1849
g15
sS'MSH2_6'
p1850
g41
sS'PMS2_368'
p1851
g52
sS'PMS2_369'
p1852
g41
sS'PMS2_366'
p1853
g11
sS'PMS2_367'
p1854
g33
sS'PMS2_364'
p1855
g11
sS'PMS2_365'
p1856
g17
sS'PMS2_362'
p1857
g92
sS'PMS2_363'
p1858
g54
sS'PMS2_360'
p1859
g6
sS'PMS2_361'
p1860
g8
sS'MSH6_916'
p1861
g54
sS'MSH6_910'
p1862
g52
sS'MLH1_296'
p1863
g13
sS'MLH1_297'
p1864
g2
sS'MLH1_294'
p1865
g13
sS'MLH1_295'
p1866
g17
sS'MLH1_292'
p1867
g13
sS'MLH1_293'
p1868
g141
sS'MLH1_290'
p1869
g15
sS'MLH1_291'
p1870
g54
sS'PMS2_624'
p1871
g17
sS'MLH1_298'
p1872
g6
sS'MLH1_299'
p1873
g17
sS'PMS2_47'
p1874
g13
sS'MSH6_442'
p1875
g6
sS'PMS2_483'
p1876
g11
sS'MLH1_368'
p1877
g17
sS'MLH1_369'
p1878
g17
sS'MLH1_362'
p1879
g17
sS'MLH1_363'
p1880
g4
sS'MLH1_360'
p1881
g33
sS'MLH1_361'
p1882
g41
sS'MLH1_366'
p1883
g13
sS'MLH1_367'
p1884
g4
sS'MLH1_364'
p1885
g4
sS'MLH1_365'
p1886
g17
sS'MSH2_33'
p1887
g4
sS'MSH2_32'
p1888
g4
sS'MSH2_31'
p1889
g4
sS'MSH2_30'
p1890
g15
sS'MSH2_37'
p1891
g54
sS'MSH2_36'
p1892
g13
sS'MSH2_35'
p1893
g178
sS'MSH2_34'
p1894
g33
sS'MLH1_160'
p1895
g29
sS'MLH1_161'
p1896
g4
sS'MSH2_39'
p1897
g178
sS'MSH2_38'
p1898
g11
sS'MLH1_164'
p1899
g41
sS'MLH1_165'
p1900
g29
sS'MLH1_166'
p1901
g13
sS'MLH1_167'
p1902
g41
sS'MSH2_868'
p1903
g15
sS'PMS2_11'
p1904
g15
sS'PMS2_488'
p1905
g29
sS'PMS2_10'
p1906
g2
sS'PMS2_107'
p1907
g178
sS'PMS2_12'
p1908
g29
sS'MSH2_723'
p1909
g17
sS'PMS2_285'
p1910
g4
sS'PMS2_284'
p1911
g17
sS'PMS2_101'
p1912
g33
sS'PMS2_287'
p1913
g178
sS'PMS2_104'
p1914
g54
sS'PMS2_168'
p1915
g33
sS'PMS2_169'
p1916
g178
sS'PMS2_283'
p1917
g17
sS'PMS2_282'
p1918
g178
sS'MSH6_230'
p1919
g2
sS'MSH6_745'
p1920
g6
sS'MSH6_231'
p1921
g33
sS'MSH6_232'
p1922
g74
sS'MSH6_79'
p1923
g17
sS'MSH6_233'
p1924
g15
sS'MSH6_73'
p1925
g52
sS'MSH6_234'
p1926
g41
sS'MSH6_71'
p1927
g52
sS'MSH6_70'
p1928
g41
sS'MSH6_77'
p1929
g178
sS'MSH6_76'
p1930
g13
sS'MSH6_75'
p1931
g8
sS'MSH6_235'
p1932
g4
sS'MSH6_605'
p1933
g4
sS'MSH6_604'
p1934
g2
sS'MSH6_607'
p1935
g4
sS'MSH6_606'
p1936
g41
sS'MSH6_601'
p1937
g13
sS'MSH6_236'
p1938
g74
sS'MSH6_1179'
p1939
g29
sS'MSH6_1178'
p1940
g8
sS'MSH6_1177'
p1941
g13
sS'MSH6_1176'
p1942
g178
sS'MSH6_1175'
p1943
g4
sS'MSH6_1174'
p1944
g54
sS'MSH6_1173'
p1945
g33
sS'MSH6_1172'
p1946
g178
sS'MSH6_1171'
p1947
g11
sS'MSH6_1170'
p1948
g6
sS'MSH2_292'
p1949
g4
sS'MSH2_293'
p1950
g4
sS'MSH2_290'
p1951
g2
sS'MSH2_291'
p1952
g13
sS'MSH2_296'
p1953
g54
sS'MSH2_297'
p1954
g17
sS'MSH2_294'
p1955
g54
sS'MSH2_295'
p1956
g11
sS'MSH2_298'
p1957
g74
sS'MSH2_299'
p1958
g141
sS'MLH1_575'
p1959
g178
sS'MSH6_680'
p1960
g29
sS'MSH2_268'
p1961
g17
sS'PMS2_437'
p1962
g15
sS'PMS2_431'
p1963
g2
sS'PMS2_510'
p1964
g11
sS'MSH6_530'
p1965
g11
sS'MLH1_478'
p1966
g11
sS'MLH1_479'
p1967
g33
sS'MSH6_779'
p1968
g100
sS'MSH6_778'
p1969
g13
sS'MSH6_771'
p1970
g41
sS'MSH6_770'
p1971
g8
sS'MSH6_163'
p1972
g8
sS'MSH6_772'
p1973
g178
sS'MSH6_775'
p1974
g41
sS'MSH6_774'
p1975
g13
sS'MSH6_777'
p1976
g21
sS'MSH6_776'
p1977
g74
sS'MSH6_393'
p1978
g29
sS'MSH6_392'
p1979
g11
sS'MSH6_391'
p1980
g54
sS'MSH6_390'
p1981
g11
sS'MSH6_397'
p1982
g141
sS'MSH6_396'
p1983
g13
sS'MSH6_395'
p1984
g4
sS'MSH6_394'
p1985
g17
sS'MLH1_472'
p1986
g178
sS'MSH6_399'
p1987
g15
sS'MSH6_398'
p1988
g33
sS'MSH2_309'
p1989
g29
sS'MSH6_151'
p1990
g141
sS'MSH6_150'
p1991
g15
sS'MSH6_153'
p1992
g8
sS'MSH6_152'
p1993
g4
sS'MSH6_155'
p1994
g41
sS'MSH2_265'
p1995
g33
sS'MSH6_157'
p1996
g41
sS'MSH6_156'
p1997
g17
sS'MSH6_159'
p1998
g29
sS'MSH6_158'
p1999
g2
sS'MSH2_264'
p2000
g74
sS'MSH6_536'
p2001
g17
sS'PMS2_707'
p2002
g141
sS'MSH6_809'
p2003
g33
sS'MSH6_808'
p2004
g33
sS'MSH6_559'
p2005
g100
sS'MSH6_558'
p2006
g33
sS'MSH6_165'
p2007
g54
sS'MSH6_555'
p2008
g29
sS'MSH6_554'
p2009
g178
sS'MSH6_557'
p2010
g8
sS'MSH6_556'
p2011
g141
sS'MSH6_535'
p2012
g141
sS'MSH6_550'
p2013
g17
sS'MSH6_553'
p2014
g4
sS'MSH6_552'
p2015
g113
sS'PMS2_20'
p2016
g178
sS'PMS2_21'
p2017
g41
sS'PMS2_22'
p2018
g17
sS'PMS2_23'
p2019
g33
sS'PMS2_24'
p2020
g113
sS'PMS2_25'
p2021
g74
sS'PMS2_26'
p2022
g6
sS'PMS2_27'
p2023
g100
sS'PMS2_28'
p2024
g17
sS'PMS2_29'
p2025
g8
sS'PMS2_119'
p2026
g11
sS'PMS2_118'
p2027
g17
sS'MSH2_478'
p2028
g13
sS'MSH2_479'
p2029
g17
sS'MSH6_166'
p2030
g141
sS'MSH6_970'
p2031
g21
sS'MSH2_472'
p2032
g15
sS'MSH2_473'
p2033
g17
sS'MSH2_470'
p2034
g33
sS'MSH2_471'
p2035
g41
sS'MSH2_476'
p2036
g15
sS'MSH2_477'
p2037
g52
sS'MSH2_474'
p2038
g54
sS'MSH2_475'
p2039
g11
sS'MLH1_564'
p2040
g13
sS'MLH1_565'
p2041
g6
sS'MLH1_566'
p2042
g141
sS'MLH1_567'
p2043
g11
sS'MLH1_560'
p2044
g54
sS'MLH1_561'
p2045
g141
sS'MLH1_562'
p2046
g74
sS'MLH1_563'
p2047
g6
sS'MSH2_270'
p2048
g13
sS'MSH2_271'
p2049
g17
sS'MSH2_272'
p2050
g29
sS'MSH2_273'
p2051
g33
sS'MLH1_568'
p2052
g54
sS'MSH2_275'
p2053
g41
sS'MSH2_276'
p2054
g54
sS'MSH2_277'
p2055
g13
sS'PMS2_490'
p2056
g33
sS'MSH2_802'
p2057
g33
sS'MSH6_963'
p2058
g8
sS'PMS2_681'
p2059
g74
sS'MSH6_968'
p2060
g33
sS'PMS2_683'
p2061
g52
sS'PMS2_682'
p2062
g54
sS'PMS2_685'
p2063
g8
sS'PMS2_684'
p2064
g13
sS'PMS2_687'
p2065
g6
sS'PMS2_492'
p2066
g41
sS'PMS2_689'
p2067
g4
sS'PMS2_688'
p2068
g6
sS'PMS2_491'
p2069
g2
sS'MSH2_515'
p2070
g17
sS'MSH2_514'
p2071
g11
sS'MSH2_517'
p2072
g29
sS'MSH2_516'
p2073
g17
sS'MSH2_511'
p2074
g6
sS'MSH2_510'
p2075
g74
sS'MLH1_629'
p2076
g2
sS'MLH1_628'
p2077
g13
sS'MLH1_627'
p2078
g17
sS'MLH1_626'
p2079
g54
sS'MLH1_625'
p2080
g141
sS'MLH1_624'
p2081
g11
sS'MLH1_623'
p2082
g29
sS'MLH1_622'
p2083
g13
sS'MLH1_621'
p2084
g92
sS'MLH1_620'
p2085
g2
sS'MSH6_960'
p2086
g52
sS'PMS2_209'
p2087
g8
sS'PMS2_208'
p2088
g74
sS'PMS2_759'
p2089
g29
sS'MSH6_961'
p2090
g178
sS'PMS2_205'
p2091
g74
sS'MSH6_486'
p2092
g4
sS'PMS2_207'
p2093
g8
sS'PMS2_206'
p2094
g13
sS'PMS2_201'
p2095
g17
sS'MSH6_1148'
p2096
g8
sS'PMS2_203'
p2097
g4
sS'PMS2_202'
p2098
g100
sS'MLH1_42'
p2099
g29
sS'MLH1_43'
p2100
g41
sS'MLH1_40'
p2101
g13
sS'MLH1_41'
p2102
g11
sS'MLH1_46'
p2103
g17
sS'MLH1_47'
p2104
g6
sS'MLH1_44'
p2105
g17
sS'MLH1_45'
p2106
g4
sS'PMS2_595'
p2107
g33
sS'MSH6_964'
p2108
g100
sS'MLH1_48'
p2109
g74
sS'MLH1_49'
p2110
g33
sS'PMS2_591'
p2111
g100
sS'PMS2_590'
p2112
g6
sS'MSH6_443'
p2113
g8
sS'MSH6_965'
p2114
g178
sS'MSH6_966'
p2115
g4
sS'MSH6_967'
p2116
g6
sS'MLH1_195'
p2117
g41
sS'MLH1_194'
p2118
g33
sS'MLH1_197'
p2119
g74
sS'MLH1_196'
p2120
g41
sS'MLH1_191'
p2121
g17
sS'MLH1_190'
p2122
g6
sS'MLH1_193'
p2123
g17
sS'MLH1_192'
p2124
g54
sS'MSH2_601'
p2125
g74
sS'MSH2_600'
p2126
g29
sS'MSH2_603'
p2127
g11
sS'MSH2_602'
p2128
g13
sS'MLH1_199'
p2129
g2
sS'MLH1_198'
p2130
g8
sS'MSH2_607'
p2131
g17
sS'MSH2_606'
p2132
g33
sS'MLH1_753'
p2133
g54
sS'MLH1_752'
p2134
g33
sS'MLH1_751'
p2135
g41
sS'MLH1_750'
p2136
g141
sS'MLH1_756'
p2137
g100
sS'MLH1_755'
p2138
g178
sS'MLH1_754'
p2139
g2
sS'PMS2_494'
p2140
g17
sS'PMS2_371'
p2141
g52
sS'PMS2_370'
p2142
g13
sS'PMS2_373'
p2143
g17
sS'PMS2_372'
p2144
g33
sS'PMS2_375'
p2145
g74
sS'PMS2_374'
p2146
g74
sS'PMS2_377'
p2147
g13
sS'MSH6_993'
p2148
g2
sS'PMS2_379'
p2149
g11
sS'PMS2_109'
p2150
g2
sS'MSH6_441'
p2151
g13
sS'MSH6_1145'
p2152
g178
sS'MSH6_528'
p2153
g2
sS'PMS2_495'
p2154
g8
sS'MLH1_289'
p2155
g113
sS'MLH1_288'
p2156
g4
sS'MLH1_281'
p2157
g29
sS'MLH1_280'
p2158
g141
sS'MLH1_283'
p2159
g141
sS'MLH1_282'
p2160
g29
sS'MLH1_285'
p2161
g15
sS'MLH1_284'
p2162
g13
sS'MLH1_287'
p2163
g52
sS'MLH1_286'
p2164
g41
sS'PMS2_496'
p2165
g113
sS'MSH6_466'
p2166
g54
sS'MSH6_237'
p2167
g8
sS'MSH6_447'
p2168
g13
sS'PMS2_609'
p2169
g33
sS'PMS2_497'
p2170
g8
sS'PMS2_608'
p2171
g29
sS'PMS2_761'
p2172
g33
sS'MSH6_446'
p2173
g2
sS'PMS2_637'
p2174
g74
sS'MLH1_379'
p2175
g141
sS'MLH1_378'
p2176
g33
sS'MLH1_375'
p2177
g17
sS'MLH1_374'
p2178
g17
sS'MLH1_377'
p2179
g41
sS'MLH1_376'
p2180
g11
sS'MLH1_371'
p2181
g4
sS'MLH1_370'
p2182
g17
sS'MLH1_373'
p2183
g8
sS'MLH1_372'
p2184
g17
sS'MSH2_20'
p2185
g33
sS'MSH2_21'
p2186
g178
sS'MLH1_179'
p2187
g33
sS'MLH1_178'
p2188
g2
sS'MSH2_24'
p2189
g74
sS'MSH2_25'
p2190
g8
sS'MSH2_26'
p2191
g92
sS'MSH2_27'
p2192
g15
sS'MLH1_173'
p2193
g141
sS'MLH1_172'
p2194
g2
sS'MLH1_171'
p2195
g2
sS'MLH1_170'
p2196
g17
sS'MLH1_177'
p2197
g13
sS'MLH1_176'
p2198
g6
sS'MLH1_175'
p2199
g41
sS'MLH1_174'
p2200
g8
sS'PMS2_602'
p2201
g29
sS'PMS2_605'
p2202
g33
sS'PMS2_604'
p2203
g74
sS'MSH6_444'
p2204
g33
sS'PMS2_607'
p2205
g33
sS'PMS2_606'
p2206
g11
sS'PMS2_561'
p2207
g41
sS'PMS2_563'
p2208
g178
sS'PMS2_166'
p2209
g13
sS'PMS2_565'
p2210
g13
sS'PMS2_567'
p2211
g74
sS'PMS2_826'
p2212
g2
sS'PMS2_569'
p2213
g4
sS'MSH6_68'
p2214
g41
sS'MSH6_69'
p2215
g29
sS'MSH6_60'
p2216
g13
sS'MSH6_61'
p2217
g29
sS'MSH6_62'
p2218
g178
sS'MSH6_63'
p2219
g17
sS'MSH6_64'
p2220
g29
sS'MSH6_65'
p2221
g17
sS'MSH6_66'
p2222
g15
sS'MSH6_67'
p2223
g15
sS'MSH6_1160'
p2224
g33
sS'MSH6_1161'
p2225
g15
sS'MSH6_1162'
p2226
g29
sS'MSH6_1163'
p2227
g2
sS'MSH6_1164'
p2228
g33
sS'MSH6_1165'
p2229
g100
sS'MSH6_1166'
p2230
g178
sS'MSH6_1167'
p2231
g13
sS'MSH6_1168'
p2232
g4
sS'MSH6_1169'
p2233
g15
sS'MSH6_948'
p2234
g2
sS'MSH6_949'
p2235
g74
sS'MSH2_285'
p2236
g52
sS'MSH2_284'
p2237
g17
sS'MSH2_287'
p2238
g8
sS'MSH2_286'
p2239
g54
sS'MSH2_281'
p2240
g17
sS'MSH2_280'
p2241
g13
sS'MSH2_283'
p2242
g11
sS'MSH2_282'
p2243
g11
sS'MSH2_289'
p2244
g54
sS'MSH2_288'
p2245
g74
sS'PMS2_820'
p2246
g4
sS'PMS2_862'
p2247
g52
sS'MSH6_521'
p2248
g4
sS'MSH6_498'
p2249
g41
sS'MSH6_499'
p2250
g92
sS'MSH6_494'
p2251
g29
sS'MSH6_495'
p2252
g178
sS'MSH6_496'
p2253
g100
sS'MSH6_497'
p2254
g178
sS'MSH6_490'
p2255
g2
sS'MSH6_491'
p2256
g92
sS'MSH6_492'
p2257
g92
sS'MSH6_493'
p2258
g2
sS'MSH6_522'
p2259
g74
sS'MSH6_708'
p2260
g2
sS'MSH6_709'
p2261
g141
sS'PMS2_781'
p2262
g74
sS'MSH6_704'
p2263
g29
sS'MSH6_705'
p2264
g52
sS'MSH6_706'
p2265
g54
sS'MSH6_707'
p2266
g2
sS'MSH6_700'
p2267
g13
sS'MSH6_701'
p2268
g13
sS'MSH6_702'
p2269
g17
sS'MSH6_703'
p2270
g92
sS'PMS2_783'
p2271
g33
sS'PMS2_785'
p2272
g2
sS'MSH6_124'
p2273
g8
sS'MSH6_125'
p2274
g41
sS'MSH6_126'
p2275
g17
sS'MSH6_127'
p2276
g33
sS'MSH6_120'
p2277
g6
sS'MSH6_121'
p2278
g178
sS'MSH6_122'
p2279
g2
sS'MSH6_123'
p2280
g41
sS'PMS2_135'
p2281
g13
sS'PMS2_787'
p2282
g6
sS'MSH6_128'
p2283
g178
sS'MSH6_129'
p2284
g33
sS'MSH6_1219'
p2285
g4
sS'MSH6_524'
p2286
g141
sS'MSH6_838'
p2287
g15
sS'MSH6_839'
p2288
g11
sS'MSH6_836'
p2289
g52
sS'MSH6_837'
p2290
g113
sS'MSH6_834'
p2291
g17
sS'MSH6_835'
p2292
g74
sS'MSH6_832'
p2293
g13
sS'MSH6_833'
p2294
g41
sS'MSH6_830'
p2295
g17
sS'MSH6_831'
p2296
g15
sS'PMS2_19'
p2297
g11
sS'PMS2_18'
p2298
g6
sS'PMS2_15'
p2299
g6
sS'PMS2_14'
p2300
g29
sS'PMS2_17'
p2301
g15
sS'PMS2_16'
p2302
g41
sS'MSH6_525'
p2303
g17
sS'MSH6_74'
p2304
g8
sS'PMS2_13'
p2305
g41
sS'MSH6_1213'
p2306
g11
sS'MSH6_238'
p2307
g17
sS'MSH6_239'
p2308
g178
sS'MSH2_469'
p2309
g13
sS'MSH2_468'
p2310
g54
sS'MSH2_465'
p2311
g52
sS'MSH2_464'
p2312
g2
sS'MSH2_467'
p2313
g2
sS'MSH2_466'
p2314
g113
sS'MSH2_461'
p2315
g11
sS'MSH2_460'
p2316
g92
sS'MSH2_463'
p2317
g33
sS'MSH2_462'
p2318
g74
sS'MLH1_577'
p2319
g17
sS'MLH1_576'
p2320
g13
sS'MSH2_269'
p2321
g17
sS'MLH1_574'
p2322
g13
sS'MLH1_573'
p2323
g33
sS'MLH1_572'
p2324
g8
sS'MLH1_571'
p2325
g54
sS'MLH1_570'
p2326
g52
sS'MSH2_263'
p2327
g52
sS'MSH2_262'
p2328
g2
sS'MSH2_261'
p2329
g92
sS'MSH2_260'
p2330
g2
sS'MSH2_267'
p2331
g33
sS'MSH2_266'
p2332
g29
sS'MLH1_579'
p2333
g15
sS'MLH1_578'
p2334
g2
sS'MSH6_1351'
p2335
g113
sS'MSH6_527'
p2336
g13
sS'MSH6_1350'
p2337
g33
sS'MLH1_612'
p2338
g33
sS'MLH1_613'
p2339
g2
sS'MLH1_610'
p2340
g141
sS'MLH1_611'
p2341
g6
sS'MLH1_616'
p2342
g41
sS'MLH1_617'
p2343
g41
sS'MLH1_614'
p2344
g54
sS'MLH1_615'
p2345
g13
sS'MSH2_577'
p2346
g6
sS'MLH1_618'
p2347
g41
sS'MLH1_619'
p2348
g29
sS'MSH2_904'
p2349
g6
sS'MSH2_576'
p2350
g29
sS'PMS2_762'
p2351
g4
sS'MSH6_267'
p2352
g15
sS'PMS2_760'
p2353
g15
sS'MSH2_905'
p2354
g4
sS'PMS2_766'
p2355
g41
sS'PMS2_767'
p2356
g13
sS'PMS2_764'
p2357
g178
sS'MSH6_266'
p2358
g41
sS'MSH2_902'
p2359
g2
sS'PMS2_768'
p2360
g6
sS'PMS2_769'
p2361
g17
sS'MLH1_584'
p2362
g11
sS'MSH2_903'
p2363
g52
sS'PMS2_560'
p2364
g100
sS'PMS2_465'
p2365
g41
sS'PMS2_562'
p2366
g54
sS'MLH1_585'
p2367
g13
sS'PMS2_564'
p2368
g33
sS'MSH2_900'
p2369
g17
sS'PMS2_566'
p2370
g15
sS'PMS2_464'
p2371
g11
sS'PMS2_568'
p2372
g15
sS'MSH6_263'
p2373
g33
sS'MSH2_901'
p2374
g2
sS'MLH1_687'
p2375
g178
sS'MSH6_262'
p2376
g11
sS'PMS2_788'
p2377
g54
sS'PMS2_789'
p2378
g92
sS'MLH1_686'
p2379
g6
sS'MSH6_261'
p2380
g17
sS'PMS2_780'
p2381
g15
sS'MSH6_972'
p2382
g6
sS'PMS2_782'
p2383
g11
sS'MSH6_260'
p2384
g8
sS'PMS2_784'
p2385
g11
sS'MSH6_994'
p2386
g141
sS'PMS2_786'
p2387
g13
sS'PMS2_460'
p2388
g8
sS'MLH1_516'
p2389
g74
sS'MSH2_678'
p2390
g141
sS'MSH2_679'
p2391
g6
sS'MSH6_147'
p2392
g13
sS'MSH2_674'
p2393
g8
sS'MSH2_675'
p2394
g41
sS'MSH2_676'
p2395
g17
sS'MSH2_677'
p2396
g4
sS'MSH2_670'
p2397
g15
sS'MSH2_671'
p2398
g52
sS'MSH2_672'
p2399
g92
sS'MSH2_673'
p2400
g8
sS'PMS2_664'
p2401
g13
sS'MSH6_145'
p2402
g41
sS'MSH6_142'
p2403
g21
sS'MSH6_997'
p2404
g41
sS'MSH6_450'
p2405
g33
sS'MSH6_143'
p2406
g33
sS'PMS2_304'
p2407
g178
sS'PMS2_305'
p2408
g13
sS'PMS2_306'
p2409
g33
sS'PMS2_307'
p2410
g52
sS'PMS2_300'
p2411
g29
sS'MSH2_214'
p2412
g178
sS'PMS2_302'
p2413
g33
sS'PMS2_303'
p2414
g100
sS'MSH2_215'
p2415
g74
sS'PMS2_308'
p2416
g2
sS'PMS2_309'
p2417
g33
sS'PMS2_301'
p2418
g41
sS'MSH6_996'
p2419
g13
sS'MSH6_451'
p2420
g54
sS'PMS2_58'
p2421
g13
sS'PMS2_839'
p2422
g113
sS'PMS2_469'
p2423
g178
sS'MSH2_700'
p2424
g29
sS'MSH2_701'
p2425
g2
sS'MSH2_702'
p2426
g33
sS'MSH2_703'
p2427
g17
sS'MSH2_704'
p2428
g6
sS'MSH2_705'
p2429
g33
sS'MSH2_706'
p2430
g11
sS'MSH2_707'
p2431
g100
sS'MSH2_708'
p2432
g6
sS'MSH2_709'
p2433
g13
sS'MSH6_476'
p2434
g41
sS'PMS2_418'
p2435
g17
sS'PMS2_419'
p2436
g178
sS'PMS2_468'
p2437
g13
sS'PMS2_410'
p2438
g2
sS'PMS2_411'
p2439
g2
sS'PMS2_412'
p2440
g41
sS'PMS2_413'
p2441
g41
sS'PMS2_414'
p2442
g11
sS'PMS2_415'
p2443
g33
sS'PMS2_416'
p2444
g17
sS'PMS2_417'
p2445
g6
sS'PMS2_108'
p2446
g8
sS'MSH6_990'
p2447
g13
sS'MSH6_453'
p2448
g41
sS'MLH1_380'
p2449
g29
sS'MLH1_381'
p2450
g113
sS'MLH1_382'
p2451
g74
sS'MLH1_383'
p2452
g92
sS'MLH1_384'
p2453
g33
sS'MLH1_385'
p2454
g178
sS'MLH1_386'
p2455
g4
sS'MLH1_387'
p2456
g11
sS'MLH1_388'
p2457
g17
sS'MLH1_389'
p2458
g178
sS'MSH2_814'
p2459
g13
sS'MSH2_815'
p2460
g141
sS'MSH2_816'
p2461
g74
sS'MSH2_817'
p2462
g33
sS'MSH2_19'
p2463
g54
sS'MSH2_18'
p2464
g8
sS'MLH1_148'
p2465
g4
sS'MLH1_149'
p2466
g74
sS'MLH1_146'
p2467
g74
sS'MSH2_14'
p2468
g29
sS'MLH1_144'
p2469
g8
sS'MLH1_145'
p2470
g52
sS'MLH1_142'
p2471
g100
sS'MLH1_143'
p2472
g29
sS'MLH1_140'
p2473
g41
sS'MLH1_141'
p2474
g15
sS'MSH6_1285'
p2475
g54
sS'MSH6_1284'
p2476
g4
sS'MSH6_1287'
p2477
g141
sS'MSH6_1286'
p2478
g13
sS'MSH6_1281'
p2479
g2
sS'MSH6_1280'
p2480
g74
sS'MSH6_1283'
p2481
g6
sS'MSH6_1282'
p2482
g4
sS'MSH6_1289'
p2483
g54
sS'MSH6_1288'
p2484
g41
sS'MSH6_810'
p2485
g2
sS'MSH6_811'
p2486
g13
sS'MSH6_812'
p2487
g13
sS'MSH6_456'
p2488
g21
sS'MSH6_541'
p2489
g17
sS'MSH6_814'
p2490
g41
sS'MSH6_815'
p2491
g13
sS'MSH2_928'
p2492
g17
sS'MSH2_929'
p2493
g178
sS'MSH6_816'
p2494
g15
sS'MSH6_936'
p2495
g11
sS'MSH2_920'
p2496
g52
sS'MSH2_921'
p2497
g17
sS'MSH2_922'
p2498
g54
sS'MSH2_923'
p2499
g33
sS'MSH2_924'
p2500
g52
sS'MSH2_925'
p2501
g2
sS'MSH2_926'
p2502
g6
sS'MSH2_927'
p2503
g6
sS'MSH6_934'
p2504
g11
sS'MSH6_933'
p2505
g54
sS'PMS2_467'
p2506
g33
sS'MSH6_932'
p2507
g8
sS'MSH6_55'
p2508
g15
sS'MSH6_54'
p2509
g8
sS'MSH6_57'
p2510
g15
sS'MSH6_56'
p2511
g8
sS'MSH6_51'
p2512
g17
sS'MSH6_50'
p2513
g21
sS'MSH6_53'
p2514
g29
sS'MSH6_52'
p2515
g2
sS'MSH6_930'
p2516
g41
sS'MSH6_59'
p2517
g15
sS'MSH6_58'
p2518
g178
sS'MSH6_959'
p2519
g178
sS'MSH6_958'
p2520
g74
sS'MSH6_951'
p2521
g13
sS'MSH6_950'
p2522
g17
sS'MSH6_953'
p2523
g2
sS'MSH6_952'
p2524
g13
sS'MSH6_955'
p2525
g13
sS'MSH6_954'
p2526
g141
sS'MSH6_957'
p2527
g41
sS'MSH6_956'
p2528
g2
sS'MSH6_1115'
p2529
g6
sS'MSH6_1114'
p2530
g13
sS'MSH6_1117'
p2531
g100
sS'MSH6_1116'
p2532
g8
sS'MSH6_1111'
p2533
g52
sS'MSH6_1110'
p2534
g15
sS'MSH6_1113'
p2535
g6
sS'MSH6_1112'
p2536
g11
sS'MSH6_1119'
p2537
g2
sS'MSH6_1118'
p2538
g2
sS'PMS2_241'
p2539
g15
sS'PMS2_461'
p2540
g29
sS'PMS2_726'
p2541
g15
sS'PMS2_662'
p2542
g11
sS'PMS2_122'
p2543
g6
sS'MSH6_94'
p2544
g11
sS'PMS2_836'
p2545
g2
sS'MSH6_489'
p2546
g15
sS'MSH6_488'
p2547
g4
sS'MSH6_487'
p2548
g2
sS'MSH6_1309'
p2549
g15
sS'MSH6_485'
p2550
g74
sS'MSH6_484'
p2551
g2
sS'MSH6_483'
p2552
g33
sS'MSH6_482'
p2553
g178
sS'MSH6_481'
p2554
g29
sS'MSH6_480'
p2555
g33
sS'MSH6_1029'
p2556
g13
sS'MSH6_1028'
p2557
g17
sS'MSH6_719'
p2558
g4
sS'MSH6_718'
p2559
g17
sS'MSH6_1021'
p2560
g29
sS'MSH6_1020'
p2561
g52
sS'MSH6_1023'
p2562
g2
sS'MSH6_1022'
p2563
g2
sS'MSH6_1025'
p2564
g178
sS'MSH6_1024'
p2565
g178
sS'MSH6_1027'
p2566
g33
sS'MSH6_1026'
p2567
g11
sS'MSH6_740'
p2568
g13
sS'PMS2_463'
p2569
g17
sS'MSH2_388'
p2570
g52
sS'MSH2_389'
p2571
g178
sS'MSH6_741'
p2572
g52
sS'MSH2_384'
p2573
g54
sS'MSH2_385'
p2574
g15
sS'MSH2_386'
p2575
g11
sS'MSH2_387'
p2576
g13
sS'MSH2_380'
p2577
g13
sS'MSH2_381'
p2578
g13
sS'MSH2_382'
p2579
g178
sS'MSH2_383'
p2580
g178
sS'MSH6_137'
p2581
g17
sS'MSH6_136'
p2582
g11
sS'MSH6_135'
p2583
g11
sS'MSH6_134'
p2584
g54
sS'MSH6_133'
p2585
g54
sS'MSH6_132'
p2586
g74
sS'MSH6_131'
p2587
g33
sS'MSH6_130'
p2588
g113
sS'MSH6_744'
p2589
g2
sS'PMS2_55'
p2590
g11
sS'PMS2_834'
p2591
g92
sS'MSH6_139'
p2592
g4
sS'MSH6_138'
p2593
g15
sS'PMS2_462'
p2594
g6
sS'MSH6_746'
p2595
g54
sS'PMS2_125'
p2596
g100
sS'MSH6_747'
p2597
g13
sS'MSH6_821'
p2598
g13
sS'MSH6_820'
p2599
g178
sS'MSH6_823'
p2600
g17
sS'MSH6_822'
p2601
g13
sS'MSH6_825'
p2602
g6
sS'MSH6_824'
p2603
g41
sS'MSH6_827'
p2604
g52
sS'MSH6_749'
p2605
g8
sS'MSH6_829'
p2606
g8
sS'MSH6_828'
p2607
g33
sS'MSH6_1303'
p2608
g29
sS'MSH6_817'
p2609
g11
sS'MLH1_511'
p2610
g2
sS'MLH1_510'
p2611
g74
sS'MLH1_513'
p2612
g6
sS'MSH2_490'
p2613
g41
sS'MSH2_491'
p2614
g41
sS'MSH2_492'
p2615
g92
sS'MSH2_493'
p2616
g74
sS'MSH2_494'
p2617
g17
sS'MSH2_495'
p2618
g4
sS'MSH2_496'
p2619
g13
sS'MSH2_497'
p2620
g6
sS'MSH2_498'
p2621
g17
sS'MLH1_543'
p2622
g113
sS'MLH1_540'
p2623
g13
sS'MLH1_541'
p2624
g29
sS'MLH1_546'
p2625
g41
sS'MLH1_547'
p2626
g13
sS'MLH1_544'
p2627
g74
sS'MLH1_545'
p2628
g4
sS'PMS2_661'
p2629
g2
sS'MSH2_441'
p2630
g4
sS'MSH2_258'
p2631
g13
sS'MSH2_259'
p2632
g15
sS'MSH2_256'
p2633
g29
sS'MSH2_257'
p2634
g33
sS'MSH2_254'
p2635
g52
sS'MSH2_255'
p2636
g17
sS'MSH2_252'
p2637
g74
sS'MSH2_253'
p2638
g92
sS'MSH2_250'
p2639
g8
sS'MSH2_251'
p2640
g2
sS'MLH1_450'
p2641
g11
sS'MLH1_451'
p2642
g4
sS'PMS2_819'
p2643
g8
sS'MLH1_452'
p2644
g4
sS'MLH1_453'
p2645
g41
sS'MLH1_454'
p2646
g8
sS'MSH2_363'
p2647
g33
sS'MLH1_605'
p2648
g2
sS'MLH1_604'
p2649
g41
sS'MLH1_607'
p2650
g13
sS'MLH1_606'
p2651
g8
sS'MLH1_601'
p2652
g11
sS'MLH1_600'
p2653
g2
sS'MLH1_603'
p2654
g15
sS'MLH1_602'
p2655
g8
sS'MLH1_457'
p2656
g2
sS'MLH1_609'
p2657
g2
sS'MLH1_608'
p2658
g29
sS'MSH2_87'
p2659
g17
sS'PMS2_775'
p2660
g52
sS'PMS2_129'
p2661
g29
sS'PMS2_777'
p2662
g4
sS'PMS2_776'
p2663
g21
sS'PMS2_771'
p2664
g15
sS'PMS2_770'
p2665
g13
sS'PMS2_773'
p2666
g17
sS'PMS2_772'
p2667
g4
sS'PMS2_779'
p2668
g8
sS'PMS2_778'
p2669
g54
sS'PMS2_573'
p2670
g4
sS'PMS2_572'
p2671
g29
sS'PMS2_571'
p2672
g13
sS'PMS2_570'
p2673
g52
sS'PMS2_577'
p2674
g41
sS'PMS2_576'
p2675
g4
sS'PMS2_575'
p2676
g52
sS'PMS2_574'
p2677
g15
sS'PMS2_579'
p2678
g54
sS'PMS2_578'
p2679
g178
sS'PMS2_799'
p2680
g178
sS'MSH2_89'
p2681
g33
sS'PMS2_793'
p2682
g17
sS'PMS2_792'
p2683
g11
sS'PMS2_791'
p2684
g17
sS'PMS2_790'
p2685
g13
sS'PMS2_797'
p2686
g92
sS'PMS2_796'
p2687
g33
sS'PMS2_795'
p2688
g8
sS'PMS2_794'
p2689
g15
sS'MSH2_669'
p2690
g8
sS'MSH2_668'
p2691
g4
sS'MSH2_667'
p2692
g6
sS'MSH2_666'
p2693
g6
sS'MSH2_665'
p2694
g113
sS'MSH2_664'
p2695
g54
sS'MSH2_663'
p2696
g92
sS'MSH2_662'
p2697
g74
sS'MSH2_661'
p2698
g41
sS'MSH2_660'
p2699
g11
sS'PMS2_538'
p2700
g41
sS'PMS2_317'
p2701
g74
sS'PMS2_316'
p2702
g113
sS'PMS2_315'
p2703
g178
sS'PMS2_314'
p2704
g52
sS'PMS2_313'
p2705
g141
sS'PMS2_312'
p2706
g92
sS'PMS2_311'
p2707
g113
sS'PMS2_310'
p2708
g141
sS'PMS2_319'
p2709
g15
sS'PMS2_318'
p2710
g141
sS'PMS2_478'
p2711
g17
sS'MSH2_316'
p2712
g17
sS'PMS2_59'
p2713
g41
sS'MSH2_713'
p2714
g8
sS'MSH2_712'
p2715
g33
sS'MSH2_711'
p2716
g178
sS'MSH2_710'
p2717
g29
sS'MSH2_717'
p2718
g17
sS'MSH2_716'
p2719
g11
sS'MSH2_715'
p2720
g8
sS'MSH2_714'
p2721
g29
sS'MSH2_719'
p2722
g13
sS'MSH2_718'
p2723
g74
sS'PMS2_409'
p2724
g8
sS'PMS2_408'
p2725
g4
sS'MSH6_981'
p2726
g6
sS'PMS2_403'
p2727
g17
sS'PMS2_402'
p2728
g74
sS'PMS2_401'
p2729
g11
sS'PMS2_400'
p2730
g74
sS'PMS2_407'
p2731
g178
sS'PMS2_406'
p2732
g13
sS'PMS2_405'
p2733
g17
sS'PMS2_404'
p2734
g15
sS'MSH6_733'
p2735
g92
sS'MSH6_1305'
p2736
g13
sS'MSH6_732'
p2737
g178
sS'MSH6_982'
p2738
g15
sS'MSH6_986'
p2739
g4
sS'MSH6_983'
p2740
g2
sS'PMS2_691'
p2741
g13
sS'MSH6_980'
p2742
g2
sS'MLH1_393'
p2743
g13
sS'MLH1_392'
p2744
g41
sS'MLH1_391'
p2745
g74
sS'MLH1_390'
p2746
g2
sS'MLH1_397'
p2747
g13
sS'MLH1_396'
p2748
g54
sS'MLH1_395'
p2749
g29
sS'MLH1_394'
p2750
g11
sS'MSH6_739'
p2751
g4
sS'MLH1_399'
p2752
g15
sS'MLH1_398'
p2753
g74
sS'MSH6_738'
p2754
g33
sS'MLH1_151'
p2755
g4
sS'MLH1_150'
p2756
g6
sS'MLH1_153'
p2757
g2
sS'MLH1_152'
p2758
g33
sS'MLH1_155'
p2759
g13
sS'MLH1_154'
p2760
g11
sS'MLH1_157'
p2761
g141
sS'MLH1_156'
p2762
g54
sS'MLH1_159'
p2763
g6
sS'MLH1_158'
p2764
g52
sS'MSH6_985'
p2765
g54
sS'MSH2_809'
p2766
g2
sS'MSH2_507'
p2767
g15
sS'MSH6_1296'
p2768
g41
sS'MSH6_1297'
p2769
g17
sS'MSH6_1294'
p2770
g100
sS'MSH6_1295'
p2771
g15
sS'MSH6_1292'
p2772
g8
sS'MSH6_1293'
p2773
g29
sS'MSH6_1290'
p2774
g6
sS'MSH6_1291'
p2775
g41
sS'PMS2_709'
p2776
g54
sS'PMS2_642'
p2777
g2
sS'MSH6_566'
p2778
g8
sS'MSH6_1298'
p2779
g141
sS'MSH6_1299'
p2780
g8
sS'MSH6_984'
p2781
g52
sS'MSH6_567'
p2782
g41
sS'MSH6_119'
p2783
g54
sS'MLH1_636'
p2784
g13
sS'MSH6_118'
p2785
g4
sS'MLH1_637'
p2786
g6
sS'MSH6_562'
p2787
g11
sS'MSH6_563'
p2788
g4
sS'MSH2_799'
p2789
g52
sS'PMS2_665'
p2790
g178
sS'MSH6_115'
p2791
g54
sS'MSH6_1360'
p2792
g13
sS'MSH2_798'
p2793
g52
sS'MSH6_114'
p2794
g15
sS'MSH2_933'
p2795
g4
sS'MSH2_810'
p2796
g4
sS'MSH2_931'
p2797
g41
sS'MSH2_930'
p2798
g6
sS'MSH6_117'
p2799
g8
sS'MSH2_811'
p2800
g13
sS'MSH6_116'
p2801
g11
sS'MSH2_812'
p2802
g4
sS'MSH6_111'
p2803
g141
sS'MSH2_813'
p2804
g92
sS'MSH6_110'
p2805
g33
sS'MSH6_42'
p2806
g15
sS'MSH2_15'
p2807
g29
sS'MSH6_40'
p2808
g29
sS'MSH6_41'
p2809
g17
sS'MSH6_46'
p2810
g8
sS'MSH6_113'
p2811
g113
sS'MSH6_44'
p2812
g15
sS'MLH1_147'
p2813
g8
sS'MSH6_48'
p2814
g29
sS'MSH6_112'
p2815
g52
sS'MSH2_17'
p2816
g33
sS'MSH2_16'
p2817
g2
sS'MSH6_928'
p2818
g4
sS'MSH6_929'
p2819
g15
sS'MSH6_924'
p2820
g4
sS'MSH2_11'
p2821
g13
sS'MSH6_926'
p2822
g13
sS'MSH6_927'
p2823
g6
sS'MSH6_920'
p2824
g41
sS'MSH6_921'
p2825
g29
sS'MSH6_922'
p2826
g178
sS'MSH2_10'
p2827
g74
sS'MSH6_1106'
p2828
g11
sS'MSH6_1107'
p2829
g11
sS'MSH6_1104'
p2830
g54
sS'MSH6_1105'
p2831
g8
sS'MSH6_1102'
p2832
g4
sS'MSH2_13'
p2833
g17
sS'MSH6_1100'
p2834
g4
sS'MSH6_1101'
p2835
g41
sS'PMS2_470'
p2836
g15
sS'PMS2_758'
p2837
g52
sS'MSH2_12'
p2838
g2
sS'PMS2_746'
p2839
g54
sS'MSH6_1108'
p2840
g54
sS'MSH6_1109'
p2841
g6
sS'PMS2_747'
p2842
g178
sS'PMS2_165'
p2843
g4
sS'PMS2_740'
p2844
g6
sS'PMS2_741'
p2845
g2
sS'PMS2_64'
p2846
g11
sS'PMS2_214'
p2847
g33
sS'PMS2_482'
p2848
g17
sS'PMS2_743'
p2849
g13
sS'PMS2_757'
p2850
g2
sS'PMS2_623'
p2851
g17
sS'PMS2_622'
p2852
g92
sS'PMS2_588'
p2853
g17
sS'PMS2_65'
p2854
g13
sS'MSH6_722'
p2855
g17
sS'MSH6_723'
p2856
g8
sS'MSH6_1038'
p2857
g141
sS'MSH6_1039'
p2858
g52
sS'MSH6_726'
p2859
g54
sS'MSH6_727'
p2860
g4
sS'MSH6_724'
p2861
g29
sS'MSH6_725'
p2862
g6
sS'MSH6_1032'
p2863
g100
sS'MSH6_1033'
p2864
g92
sS'MSH6_1030'
p2865
g41
sS'MSH6_1031'
p2866
g11
sS'MSH6_1036'
p2867
g13
sS'MSH6_1037'
p2868
g54
sS'MSH6_1034'
p2869
g178
sS'MSH6_1035'
p2870
g178
sS'MSH6_458'
p2871
g113
sS'MSH6_459'
p2872
g17
sS'MSH6_108'
p2873
g100
sS'MSH6_109'
p2874
g13
sS'PMS2_625'
p2875
g13
sS'MSH2_399'
p2876
g29
sS'MSH2_398'
p2877
g29
sS'MSH2_397'
p2878
g74
sS'MSH2_396'
p2879
g178
sS'MSH2_395'
p2880
g74
sS'MSH2_394'
p2881
g54
sS'MSH2_393'
p2882
g41
sS'MSH2_392'
p2883
g41
sS'MSH2_391'
p2884
g29
sS'MSH2_390'
p2885
g13
sS'PMS2_200'
p2886
g33
sS'PMS2_581'
p2887
g41
sS'PMS2_586'
p2888
g17
sS'PMS2_587'
p2889
g17
sS'MSH6_586'
p2890
g33
sS'MSH6_587'
p2891
g29
sS'MSH6_584'
p2892
g4
sS'MSH6_585'
p2893
g13
sS'MSH6_582'
p2894
g54
sS'MSH6_583'
p2895
g178
sS'MSH6_580'
p2896
g17
sS'MSH6_581'
p2897
g178
sS'MSH6_858'
p2898
g54
sS'MSH6_859'
p2899
g13
sS'MSH6_588'
p2900
g113
sS'MSH6_589'
p2901
g141
sS'PMS2_475'
p2902
g33
sS'MSH2_483'
p2903
g2
sS'MSH2_482'
p2904
g178
sS'MSH2_481'
p2905
g13
sS'MSH2_480'
p2906
g2
sS'MSH2_487'
p2907
g11
sS'MSH2_486'
p2908
g52
sS'MSH2_485'
p2909
g92
sS'MSH2_484'
p2910
g6
sS'MLH1_555'
p2911
g13
sS'MLH1_554'
p2912
g41
sS'MSH2_489'
p2913
g2
sS'MSH2_488'
p2914
g13
sS'MLH1_551'
p2915
g52
sS'MLH1_550'
p2916
g13
sS'MLH1_553'
p2917
g4
sS'MLH1_552'
p2918
g4
sS'MSH2_241'
p2919
g13
sS'MSH2_240'
p2920
g11
sS'MSH2_243'
p2921
g178
sS'MSH2_242'
p2922
g52
sS'MSH2_245'
p2923
g13
sS'MSH2_244'
p2924
g13
sS'MSH2_247'
p2925
g8
sS'MSH2_246'
p2926
g41
sS'MSH2_249'
p2927
g41
sS'MSH2_248'
p2928
g41
sS'PMS2_703'
p2929
g4
sS'PMS2_756'
p2930
g11
sS'PMS2_62'
p2931
g8
sS'MSH6_1357'
p2932
g6
sS'PMS2_124'
p2933
g4
sS'PMS2_514'
p2934
g113
sS'PMS2_63'
p2935
g33
sS'PMS2_521'
p2936
g29
sS'MLH1_99'
p2937
g54
sS'MLH1_98'
p2938
g8
sS'PMS2_544'
p2939
g11
sS'PMS2_545'
p2940
g17
sS'PMS2_542'
p2941
g4
sS'PMS2_543'
p2942
g11
sS'PMS2_540'
p2943
g15
sS'MSH2_453'
p2944
g92
sS'MLH1_91'
p2945
g13
sS'MLH1_90'
p2946
g11
sS'MLH1_93'
p2947
g17
sS'MLH1_92'
p2948
g29
sS'MLH1_95'
p2949
g17
sS'MLH1_94'
p2950
g6
sS'MLH1_97'
p2951
g141
sS'MLH1_96'
p2952
g4
sS'MSH6_385'
p2953
g178
sS'MSH2_652'
p2954
g15
sS'MSH2_653'
p2955
g52
sS'MSH2_650'
p2956
g54
sS'MSH2_651'
p2957
g6
sS'MLH1_708'
p2958
g6
sS'MLH1_709'
p2959
g15
sS'MSH2_654'
p2960
g11
sS'MSH2_655'
p2961
g33
sS'MLH1_704'
p2962
g33
sS'MLH1_705'
p2963
g15
sS'MLH1_706'
p2964
g8
sS'MLH1_707'
p2965
g17
sS'MLH1_700'
p2966
g74
sS'MLH1_701'
p2967
g74
sS'MLH1_702'
p2968
g17
sS'MLH1_703'
p2969
g2
sS'PMS2_328'
p2970
g11
sS'PMS2_329'
p2971
g17
sS'PMS2_322'
p2972
g33
sS'PMS2_323'
p2973
g13
sS'PMS2_320'
p2974
g54
sS'PMS2_321'
p2975
g33
sS'PMS2_326'
p2976
g17
sS'PMS2_327'
p2977
g33
sS'PMS2_324'
p2978
g52
sS'PMS2_325'
p2979
g6
sS'PMS2_9'
p2980
g4
sS'PMS2_8'
p2981
g17
sS'PMS2_1'
p2982
g92
sS'PMS2_3'
p2983
g178
sS'PMS2_2'
p2984
g2
sS'PMS2_5'
p2985
g2
sS'PMS2_4'
p2986
g29
sS'PMS2_134'
p2987
g178
sS'PMS2_6'
p2988
g17
sS'MLH1_740'
p2989
g6
sS'MLH1_741'
p2990
g13
sS'PMS2_755'
p2991
g6
sS'MSH2_614'
p2992
g8
sS'MSH2_615'
p2993
g29
sS'PMS2_54'
p2994
g6
sS'MSH2_612'
p2995
g17
sS'MSH2_613'
p2996
g52
sS'MSH2_726'
p2997
g92
sS'MSH2_727'
p2998
g29
sS'MSH2_724'
p2999
g4
sS'MSH2_725'
p3000
g54
sS'MSH2_722'
p3001
g33
sS'MLH1_746'
p3002
g13
sS'MSH2_720'
p3003
g41
sS'MSH2_721'
p3004
g8
sS'MLH1_747'
p3005
g15
sS'PMS2_157'
p3006
g33
sS'MSH2_728'
p3007
g2
sS'MSH2_729'
p3008
g92
sS'MSH2_1'
p3009
g92
sS'MSH6_202'
p3010
g15
sS'PMS2_438'
p3011
g41
sS'PMS2_439'
p3012
g4
sS'PMS2_436'
p3013
g17
sS'PMS2_151'
p3014
g178
sS'PMS2_434'
p3015
g15
sS'PMS2_435'
p3016
g113
sS'PMS2_432'
p3017
g52
sS'PMS2_433'
p3018
g41
sS'PMS2_430'
p3019
g4
sS'PMS2_150'
p3020
g15
sS'PMS2_153'
p3021
g178
sS'PMS2_708'
p3022
g52
sS'PMS2_152'
p3023
g15
sS'MSH6_160'
p3024
g74
sS'MSH2_7'
p3025
g2
sS'MSH6_161'
p3026
g41
sS'MSH2_619'
p3027
g141
sS'MSH6_162'
p3028
g8
sS'MSH2_838'
p3029
g41
sS'MSH2_839'
p3030
g113
sS'MSH2_832'
p3031
g2
sS'MSH2_833'
p3032
g13
sS'MSH2_830'
p3033
g33
sS'MSH2_831'
p3034
g29
sS'MSH2_836'
p3035
g54
sS'MSH2_837'
p3036
g15
sS'MSH2_834'
p3037
g29
sS'MSH2_835'
p3038
g52
sS'MLH1_124'
p3039
g100
sS'MLH1_125'
p3040
g29
sS'MLH1_126'
p3041
g141
sS'MLH1_127'
p3042
g178
sS'MLH1_120'
p3043
g29
sS'MLH1_121'
p3044
g11
sS'MLH1_122'
p3045
g8
sS'MLH1_123'
p3046
g41
sS'MSH6_167'
p3047
g17
sS'MLH1_128'
p3048
g29
sS'MLH1_129'
p3049
g17
sS'PMS2_160'
p3050
g74
sS'MSH6_659'
p3051
g13
sS'PMS2_549'
p3052
g33
sS'PMS2_754'
p3053
g33
sS'MLH1_238'
p3054
g13
sS'MLH1_239'
p3055
g29
sS'MSH6_1355'
p3056
g4
sS'MSH6_1354'
p3057
g13
sS'MSH6_1353'
p3058
g13
sS'MSH6_1352'
p3059
g41
sS'MSH2_908'
p3060
g13
sS'MSH2_909'
p3061
g41
sS'MLH1_230'
p3062
g2
sS'MLH1_231'
p3063
g6
sS'MLH1_232'
p3064
g8
sS'MLH1_233'
p3065
g100
sS'MLH1_234'
p3066
g2
sS'MLH1_235'
p3067
g11
sS'MLH1_236'
p3068
g41
sS'MLH1_237'
p3069
g4
sS'PMS2_106'
p3070
g54
sS'PMS2_516'
p3071
g17
sS'PMS2_621'
p3072
g17
sS'MSH6_1139'
p3073
g8
sS'MSH6_1138'
p3074
g8
sS'MSH6_939'
p3075
g74
sS'MSH6_938'
p3076
g11
sS'MSH6_1133'
p3077
g4
sS'MSH6_1132'
p3078
g33
sS'MSH6_1131'
p3079
g13
sS'MSH6_1130'
p3080
g33
sS'MSH6_1137'
p3081
g92
sS'MSH6_1136'
p3082
g52
sS'MSH6_1135'
p3083
g15
sS'MSH6_1134'
p3084
g8
sS'PMS2_558'
p3085
g4
sS'MSH6_611'
p3086
g17
sS'MSH6_735'
p3087
g13
sS'MSH6_734'
p3088
g33
sS'MSH6_737'
p3089
g29
sS'MSH6_736'
p3090
g11
sS'MSH6_731'
p3091
g74
sS'MSH6_730'
p3092
g141
sS'MSH6_1009'
p3093
g41
sS'MSH6_1008'
p3094
g4
sS'MSH6_1007'
p3095
g21
sS'MSH6_1006'
p3096
g141
sS'MSH6_1005'
p3097
g178
sS'MSH6_1004'
p3098
g41
sS'MSH6_1003'
p3099
g100
sS'MSH6_1002'
p3100
g8
sS'MSH6_1001'
p3101
g41
sS'MSH6_1000'
p3102
g41
sS'MSH6_449'
p3103
g13
sS'MSH6_448'
p3104
g8
sS'MLH1_498'
p3105
g178
sS'MLH1_499'
p3106
g178
sS'MLH1_494'
p3107
g100
sS'MLH1_495'
p3108
g4
sS'MLH1_496'
p3109
g15
sS'MLH1_497'
p3110
g178
sS'MLH1_490'
p3111
g92
sS'MLH1_491'
p3112
g4
sS'MLH1_492'
p3113
g29
sS'MLH1_493'
p3114
g29
sS'MSH2_120'
p3115
g29
sS'MSH2_121'
p3116
g141
sS'MSH2_122'
p3117
g41
sS'MSH2_123'
p3118
g29
sS'MSH2_124'
p3119
g17
sS'MSH2_125'
p3120
g15
sS'MSH2_126'
p3121
g8
sS'MSH2_127'
p3122
g52
sS'MSH2_128'
p3123
g13
sS'MSH2_129'
p3124
g17
sS'PMS2_479'
p3125
g113
sS'PMS2_76'
p3126
g2
sS'MSH6_599'
p3127
g8
sS'MSH6_598'
p3128
g41
sS'PMS2_620'
p3129
g54
sS'MSH6_591'
p3130
g15
sS'MSH6_590'
p3131
g15
sS'MSH6_593'
p3132
g74
sS'MSH6_592'
p3133
g33
sS'MSH6_595'
p3134
g13
sS'MSH6_594'
p3135
g33
sS'MSH6_597'
p3136
g2
sS'MSH6_596'
p3137
g54
sS'MSH6_847'
p3138
g2
sS'MSH6_846'
p3139
g2
sS'MSH6_845'
p3140
g141
sS'MSH6_844'
p3141
g92
sS'MSH6_843'
p3142
g6
sS'MSH6_842'
p3143
g29
sS'MSH6_841'
p3144
g178
sS'MSH6_840'
p3145
g17
sS'PMS2_75'
p3146
g33
sS'MSH6_849'
p3147
g4
sS'MSH6_848'
p3148
g4
sS'PMS2_46'
p3149
g17
sS'MSH6_201'
p3150
g2
sS'MSH6_200'
p3151
g17
sS'MSH6_203'
p3152
g2
sS'MSH2_874'
p3153
g141
sS'MSH6_205'
p3154
g2
sS'MSH6_204'
p3155
g2
sS'MSH6_207'
p3156
g2
sS'MSH6_206'
p3157
g2
sS'MSH6_209'
p3158
g2
sS'MSH6_208'
p3159
g92
sS'PMS2_159'
p3160
g33
sS'PMS2_158'
p3161
g17
sS'MSH6_753'
p3162
g17
sS'MSH2_234'
p3163
g4
sS'MSH2_235'
p3164
g41
sS'MSH2_236'
p3165
g11
sS'MSH2_237'
p3166
g6
sS'MSH2_230'
p3167
g29
sS'MSH2_231'
p3168
g11
sS'MSH2_232'
p3169
g54
sS'MSH2_233'
p3170
g17
sS'MSH2_238'
p3171
g141
sS'MSH2_239'
p3172
g74
sS'PMS2_73'
p3173
g100
sS'PMS2_72'
p3174
g8
sS'PMS2_489'
p3175
g2
sS'PMS2_519'
p3176
g141
sS'MSH6_1143'
p3177
g13
sS'MLH1_86'
p3178
g74
sS'MLH1_87'
p3179
g17
sS'MLH1_84'
p3180
g41
sS'MLH1_85'
p3181
g13
sS'MLH1_82'
p3182
g4
sS'MLH1_83'
p3183
g17
sS'MLH1_80'
p3184
g54
sS'MLH1_81'
p3185
g4
sS'MSH2_340'
p3186
g178
sS'MSH2_341'
p3187
g13
sS'MSH2_342'
p3188
g33
sS'MSH2_343'
p3189
g52
sS'MSH2_344'
p3190
g74
sS'MSH2_345'
p3191
g21
sS'MLH1_88'
p3192
g54
sS'MLH1_89'
p3193
g2
sS'PMS2_71'
p3194
g52
sS'PMS2_627'
p3195
g41
sS'MSH2_348'
p3196
g74
sS'MSH2_349'
p3197
g15
sS'MLH1_539'
p3198
g29
sS'MSH2_645'
p3199
g74
sS'MSH2_644'
p3200
g33
sS'MSH2_647'
p3201
g2
sS'MSH2_646'
p3202
g11
sS'MSH2_641'
p3203
g100
sS'MSH2_640'
p3204
g29
sS'MLH1_719'
p3205
g6
sS'MLH1_718'
p3206
g113
sS'MLH1_717'
p3207
g2
sS'MLH1_716'
p3208
g33
sS'MLH1_715'
p3209
g4
sS'MLH1_714'
p3210
g21
sS'MLH1_713'
p3211
g41
sS'MLH1_712'
p3212
g21
sS'MLH1_711'
p3213
g17
sS'MLH1_710'
p3214
g52
sS'PMS2_339'
p3215
g11
sS'PMS2_126'
p3216
g113
sS'PMS2_335'
p3217
g52
sS'PMS2_334'
p3218
g6
sS'PMS2_337'
p3219
g4
sS'PMS2_127'
p3220
g29
sS'PMS2_331'
p3221
g100
sS'PMS2_330'
p3222
g2
sS'PMS2_333'
p3223
g11
sS'PMS2_332'
p3224
g33
sS'MSH2_429'
p3225
g74
sS'MSH2_428'
p3226
g113
sS'MSH6_855'
p3227
g6
sS'PMS2_553'
p3228
g17
sS'PMS2_552'
p3229
g113
sS'PMS2_555'
p3230
g74
sS'PMS2_554'
p3231
g52
sS'MSH2_739'
p3232
g29
sS'MSH2_738'
p3233
g17
sS'MSH2_346'
p3234
g6
sS'MSH2_731'
p3235
g2
sS'MSH2_730'
p3236
g13
sS'MSH2_733'
p3237
g29
sS'MSH2_347'
p3238
g41
sS'MSH2_735'
p3239
g6
sS'MSH2_734'
p3240
g17
sS'MSH2_737'
p3241
g178
sS'MSH2_736'
p3242
g13
sS'PMS2_421'
p3243
g178
sS'PMS2_420'
p3244
g13
sS'PMS2_423'
p3245
g29
sS'PMS2_422'
p3246
g2
sS'PMS2_425'
p3247
g17
sS'MSH6_804'
p3248
g41
sS'MSH6_43'
p3249
g17
sS'PMS2_426'
p3250
g13
sS'PMS2_429'
p3251
g4
sS'PMS2_428'
p3252
g113
sS'PMS2_503'
p3253
g17
sS'PMS2_626'
p3254
g29
sS'MSH2_829'
p3255
g113
sS'MSH2_828'
p3256
g6
sS'MSH2_825'
p3257
g17
sS'MSH2_824'
p3258
g74
sS'MSH2_827'
p3259
g8
sS'MSH2_826'
p3260
g54
sS'MSH2_821'
p3261
g33
sS'MSH2_820'
p3262
g8
sS'MSH2_823'
p3263
g11
sS'MSH2_822'
p3264
g100
sS'MLH1_137'
p3265
g29
sS'MLH1_136'
p3266
g41
sS'MLH1_135'
p3267
g13
sS'MLH1_134'
p3268
g41
sS'MLH1_133'
p3269
g8
sS'MLH1_132'
p3270
g11
sS'MLH1_131'
p3271
g17
sS'MLH1_130'
p3272
g141
sS'MLH1_139'
p3273
g15
sS'MLH1_138'
p3274
g15
sS'MSH6_720'
p3275
g4
sS'PMS2_83'
p3276
g13
sS'MSH6_1348'
p3277
g2
sS'MSH6_1349'
p3278
g29
sS'MSH6_1340'
p3279
g17
sS'MSH6_1341'
p3280
g2
sS'MSH6_1342'
p3281
g178
sS'MSH6_1343'
p3282
g17
sS'MSH6_1344'
p3283
g4
sS'MSH6_1345'
p3284
g33
sS'MSH6_1346'
p3285
g11
sS'MSH6_1347'
p3286
g29
sS'MSH2_911'
p3287
g13
sS'MSH2_910'
p3288
g74
sS'MLH1_229'
p3289
g6
sS'MLH1_228'
p3290
g13
sS'MSH2_915'
p3291
g33
sS'MSH2_914'
p3292
g2
sS'MSH2_917'
p3293
g29
sS'MSH2_916'
p3294
g6
sS'MLH1_223'
p3295
g29
sS'MLH1_222'
p3296
g52
sS'MLH1_221'
p3297
g8
sS'MLH1_220'
p3298
g54
sS'MLH1_227'
p3299
g2
sS'MLH1_226'
p3300
g178
sS'MLH1_225'
p3301
g17
sS'MLH1_224'
p3302
g33
sS'MSH6_717'
p3303
g33
sS'MSH6_716'
p3304
g4
sS'MSH6_715'
p3305
g11
sS'MSH6_902'
p3306
g54
sS'MSH6_903'
p3307
g15
sS'MSH6_900'
p3308
g8
sS'MSH6_714'
p3309
g17
sS'MSH6_1128'
p3310
g141
sS'MSH6_1129'
p3311
g100
sS'MSH6_904'
p3312
g11
sS'MSH6_905'
p3313
g13
sS'MSH6_1124'
p3314
g52
sS'MSH6_1125'
p3315
g8
sS'MSH6_1126'
p3316
g41
sS'MSH6_1127'
p3317
g29
sS'MSH6_1120'
p3318
g2
sS'MSH6_1121'
p3319
g2
sS'MSH6_1122'
p3320
g74
sS'MSH6_1123'
p3321
g2
sS'MSH6_711'
p3322
g15
sS'MSH6_710'
p3323
g6
sS'MSH6_698'
p3324
g74
sS'MSH6_699'
p3325
g2
sS'MSH2_643'
p3326
g2
sS'MSH6_692'
p3327
g41
sS'MSH6_693'
p3328
g41
sS'MSH6_690'
p3329
g141
sS'MSH2_642'
p3330
g33
sS'MSH6_696'
p3331
g6
sS'MSH6_697'
p3332
g11
sS'MSH6_694'
p3333
g100
sS'MSH6_695'
p3334
g13
sS'MLH1_168'
p3335
g52
sS'MLH1_169'
p3336
g15
sS'MSH2_649'
p3337
g29
sS'MSH2_648'
p3338
g6
sS'MSH6_1010'
p3339
g4
sS'MSH6_1011'
p3340
g6
sS'MSH6_1012'
p3341
g2
sS'MSH6_1013'
p3342
g41
sS'MSH6_1014'
p3343
g41
sS'MSH6_1015'
p3344
g13
sS'MSH6_1016'
p3345
g29
sS'MSH6_1017'
p3346
g52
sS'MSH6_1018'
p3347
g13
sS'MSH6_1019'
p3348
g6
sS'MSH2_878'
p3349
g2
sS'MLH1_489'
p3350
g2
sS'MLH1_488'
p3351
g41
sS'MLH1_487'
p3352
g178
sS'MLH1_486'
p3353
g17
sS'MLH1_485'
p3354
g11
sS'MLH1_484'
p3355
g11
sS'MLH1_483'
p3356
g2
sS'MLH1_482'
p3357
g33
sS'MLH1_481'
p3358
g92
sS'MLH1_480'
p3359
g2
sS'MSH2_133'
p3360
g11
sS'MSH2_132'
p3361
g2
sS'MSH2_131'
p3362
g54
sS'MSH2_130'
p3363
g74
sS'MSH2_137'
p3364
g8
sS'MSH2_136'
p3365
g54
sS'MSH2_135'
p3366
g13
sS'MSH2_134'
p3367
g6
sS'MSH2_139'
p3368
g52
sS'MSH2_138'
p3369
g52
sS'MLH1_162'
p3370
g178
sS'PMS2_338'
p3371
g15
sS'MSH6_878'
p3372
g33
sS'MLH1_163'
p3373
g178
sS'MSH6_872'
p3374
g6
sS'MSH2_872'
p3375
g41
sS'MSH6_870'
p3376
g41
sS'MSH6_871'
p3377
g6
sS'MSH6_876'
p3378
g2
sS'MSH6_877'
p3379
g2
sS'MSH6_874'
p3380
g6
sS'MSH2_873'
p3381
g100
sS'MSH2_870'
p3382
g29
sS'MSH2_871'
p3383
g41
sS'PMS2_336'
p3384
g33
sS'MSH6_728'
p3385
g41
sS'MSH6_274'
p3386
g17
sS'MSH6_275'
p3387
g17
sS'MSH6_276'
p3388
g11
sS'MSH6_277'
p3389
g2
sS'MSH6_270'
p3390
g41
sS'MSH6_271'
p3391
g2
sS'MSH6_272'
p3392
g2
sS'MSH6_273'
p3393
g8
sS'MSH6_278'
p3394
g6
sS'MSH6_279'
p3395
g17
sS'MSH2_227'
p3396
g178
sS'MSH2_226'
p3397
g2
sS'MSH2_225'
p3398
g4
sS'MSH2_224'
p3399
g6
sS'MSH2_223'
p3400
g13
sS'MSH2_222'
p3401
g6
sS'MSH2_221'
p3402
g8
sS'MSH2_220'
p3403
g8
sS'PMS2_724'
p3404
g6
sS'MSH2_229'
p3405
g41
sS'MSH2_228'
p3406
g41
sS'PMS2_725'
p3407
g29
sS'PMS2_722'
p3408
g178
sS'MSH6_995'
p3409
g2
sS'PMS2_723'
p3410
g13
sS'PMS2_720'
p3411
g8
sS'PMS2_721'
p3412
g74
sS'MSH6_610'
p3413
g41
sS'MSH6_308'
p3414
g8
sS'MSH6_309'
p3415
g17
sS'MSH6_300'
p3416
g178
sS'MSH6_301'
p3417
g41
sS'MSH6_302'
p3418
g178
sS'MSH6_303'
p3419
g92
sS'MSH6_304'
p3420
g33
sS'MSH6_305'
p3421
g4
sS'MSH6_306'
p3422
g8
sS'MSH6_307'
p3423
g52
sS'MSH2_359'
p3424
g178
sS'MSH2_358'
p3425
g2
sS'MSH6_1316'
p3426
g8
sS'PMS2_529'
p3427
g17
sS'MSH2_353'
p3428
g41
sS'MSH2_352'
p3429
g11
sS'MSH2_351'
p3430
g92
sS'MSH2_350'
p3431
g13
sS'MSH2_357'
p3432
g2
sS'MSH2_356'
p3433
g6
sS'MSH2_355'
p3434
g178
sS'MSH2_354'
p3435
g52
sS'PMS2_120'
p3436
g33
sS'PMS2_645'
p3437
g141
sS'MSH6_742'
p3438
g52
sS'MLH1_722'
p3439
g41
sS'MLH1_723'
p3440
g29
sS'MLH1_720'
p3441
g33
sS'MLH1_721'
p3442
g141
sS'MLH1_726'
p3443
g17
sS'MLH1_727'
p3444
g113
sS'MLH1_724'
p3445
g13
sS'MLH1_725'
p3446
g178
sS'MLH1_728'
p3447
g6
sS'MLH1_729'
p3448
g13
sS'MSH6_743'
p3449
g13
sS'MSH2_804'
p3450
g29
sS'PMS2_630'
p3451
g41
sS'PMS2_631'
p3452
g74
sS'PMS2_632'
p3453
g13
sS'PMS2_633'
p3454
g113
sS'PMS2_634'
p3455
g113
sS'PMS2_635'
p3456
g2
sS'PMS2_188'
p3457
g13
sS'PMS2_189'
p3458
g113
sS'PMS2_186'
p3459
g74
sS'PMS2_187'
p3460
g33
sS'PMS2_184'
p3461
g92
sS'PMS2_185'
p3462
g33
sS'PMS2_182'
p3463
g29
sS'PMS2_183'
p3464
g41
sS'PMS2_180'
p3465
g2
sS'PMS2_181'
p3466
g141
sS'PMS2_858'
p3467
g33
sS'PMS2_859'
p3468
g6
sS'MSH6_975'
p3469
g52
sS'PMS2_850'
p3470
g92
sS'PMS2_851'
p3471
g178
sS'PMS2_852'
p3472
g113
sS'MSH6_826'
p3473
g113
sS'PMS2_854'
p3474
g29
sS'MSH2_803'
p3475
g4
sS'PMS2_856'
p3476
g13
sS'PMS2_857'
p3477
g8
sS'PMS2_527'
p3478
g178
sS'MSH2_748'
p3479
g11
sS'MSH2_749'
p3480
g2
sS'MSH2_744'
p3481
g13
sS'MSH2_745'
p3482
g6
sS'MSH2_746'
p3483
g6
sS'MSH2_747'
p3484
g6
sS'MSH2_740'
p3485
g4
sS'MSH2_741'
p3486
g41
sS'MSH2_742'
p3487
g11
sS'MSH2_743'
p3488
g17
sS'MSH2_588'
p3489
g141
sS'MSH2_589'
p3490
g33
sS'PMS2_655'
p3491
g8
sS'MSH2_582'
p3492
g33
sS'MSH2_583'
p3493
g52
sS'MSH2_580'
p3494
g2
sS'MSH2_581'
p3495
g6
sS'MSH2_586'
p3496
g17
sS'MSH2_587'
p3497
g8
sS'MSH2_584'
p3498
g6
sS'MSH2_585'
p3499
g17
sS'PMS2_454'
p3500
g13
sS'PMS2_455'
p3501
g17
sS'PMS2_456'
p3502
g17
sS'PMS2_457'
p3503
g17
sS'PMS2_450'
p3504
g41
sS'PMS2_451'
p3505
g178
sS'PMS2_452'
p3506
g8
sS'PMS2_453'
p3507
g92
sS'PMS2_458'
p3508
g4
sS'PMS2_459'
p3509
g17
sS'PMS2_121'
p3510
g4
sS'PMS2_644'
p3511
g52
sS'PMS2_713'
p3512
g74
sS'MLH1_108'
p3513
g17
sS'MLH1_109'
p3514
g113
sS'MLH1_102'
p3515
g2
sS'MLH1_103'
p3516
g29
sS'MLH1_100'
p3517
g178
sS'MLH1_101'
p3518
g8
sS'MLH1_106'
p3519
g17
sS'MLH1_107'
p3520
g6
sS'MLH1_104'
p3521
g13
sS'MLH1_105'
p3522
g29
sS'MSH2_698'
p3523
g2
sS'MSH2_699'
p3524
g17
sS'MSH2_696'
p3525
g15
sS'MSH2_697'
p3526
g100
sS'MSH2_694'
p3527
g54
sS'MSH2_695'
p3528
g33
sS'MSH2_692'
p3529
g8
sS'MSH2_693'
p3530
g100
sS'MSH2_690'
p3531
g74
sS'MSH2_691'
p3532
g6
sS'PMS2_551'
p3533
g100
sS'MSH6_619'
p3534
g2
sS'MSH6_1339'
p3535
g29
sS'MSH6_1338'
p3536
g13
sS'MSH6_1335'
p3537
g2
sS'MSH6_1334'
p3538
g178
sS'MSH6_1337'
p3539
g100
sS'MSH6_1336'
p3540
g33
sS'MSH6_1331'
p3541
g178
sS'MLH1_548'
p3542
g141
sS'MSH6_1333'
p3543
g54
sS'MSH6_1332'
p3544
g13
sS'MLH1_549'
p3545
g13
sS'MSH6_618'
p3546
g74
sS'MLH1_218'
p3547
g17
sS'MLH1_219'
p3548
g6
sS'MLH1_216'
p3549
g6
sS'MLH1_217'
p3550
g178
sS'MLH1_214'
p3551
g11
sS'MLH1_215'
p3552
g52
sS'MLH1_212'
p3553
g4
sS'MLH1_213'
p3554
g33
sS'MLH1_210'
p3555
g29
sS'MLH1_211'
p3556
g17
sS'PMS2_179'
p3557
g41
sS'PMS2_178'
p3558
g41
sS'PMS2_294'
p3559
g178
sS'MSH6_99'
p3560
g41
sS'MLH1_542'
p3561
g74
sS'MSH2_499'
p3562
g29
sS'MSH6_91'
p3563
g17
sS'MSH6_90'
p3564
g54
sS'MSH6_93'
p3565
g8
sS'MSH6_92'
p3566
g15
sS'MSH6_95'
p3567
g13
sS'MSH6_221'
p3568
g2
sS'MSH6_97'
p3569
g21
sS'MSH6_96'
p3570
g33
sS'MSH6_915'
p3571
g29
sS'MSH6_914'
p3572
g4
sS'MSH6_917'
p3573
g11
sS'MSH6_220'
p3574
g2
sS'MSH6_911'
p3575
g178
sS'MSH6_676'
p3576
g41
sS'MSH6_913'
p3577
g11
sS'MSH6_912'
p3578
g21
sS'MSH6_227'
p3579
g17
sS'MSH6_919'
p3580
g2
sS'MSH6_918'
p3581
g113
sS'MSH6_226'
p3582
g2
sS'MSH6_1241'
p3583
g100
sS'MSH6_1240'
p3584
g41
sS'MSH6_1243'
p3585
g4
sS'MSH6_1242'
p3586
g178
sS'MSH6_1245'
p3587
g54
sS'MSH6_1244'
p3588
g13
sS'MSH6_1247'
p3589
g4
sS'MSH6_1246'
p3590
g17
sS'MSH6_1249'
p3591
g141
sS'MSH6_1248'
p3592
g113
sS'MSH6_224'
p3593
g2
sS'PMS2_424'
p3594
g54
sS'MSH2_317'
p3595
g33
sS'MSH6_689'
p3596
g54
sS'MSH6_688'
p3597
g33
sS'MLH1_460'
p3598
g2
sS'MSH6_685'
p3599
g8
sS'MSH6_684'
p3600
g13
sS'MSH6_687'
p3601
g100
sS'MSH6_686'
p3602
g8
sS'MSH6_681'
p3603
g13
sS'MSH2_315'
p3604
g8
sS'MSH6_683'
p3605
g29
sS'MSH6_682'
p3606
g17
sS'PMS2_832'
p3607
g4
sS'MSH2_314'
p3608
g74
sS'PMS2_833'
p3609
g113
sS'MSH2_313'
p3610
g54
sS'PMS2_830'
p3611
g13
sS'MSH2_312'
p3612
g13
sS'PMS2_343'
p3613
g6
sS'PMS2_550'
p3614
g11
sS'MSH2_311'
p3615
g52
sS'PMS2_344'
p3616
g13
sS'MLH1_466'
p3617
g17
sS'PMS2_837'
p3618
g92
sS'MSH6_1065'
p3619
g52
sS'MSH6_1064'
p3620
g29
sS'MSH6_1067'
p3621
g17
sS'MSH6_1066'
p3622
g141
sS'MSH6_1061'
p3623
g13
sS'MSH6_1060'
p3624
g13
sS'MSH6_1063'
p3625
g13
sS'MSH6_1062'
p3626
g100
sS'PMS2_347'
p3627
g2
sS'MSH6_1069'
p3628
g8
sS'MSH6_1068'
p3629
g178
sS'MSH6_461'
p3630
g54
sS'MSH6_460'
p3631
g8
sS'MSH6_463'
p3632
g2
sS'MSH6_462'
p3633
g15
sS'MSH6_465'
p3634
g29
sS'MSH6_464'
p3635
g6
sS'MSH6_467'
p3636
g8
sS'MSH6_440'
p3637
g29
sS'MSH6_469'
p3638
g141
sS'MSH6_468'
p3639
g178
sS'MSH2_106'
p3640
g178
sS'MSH2_107'
p3641
g29
sS'MSH2_104'
p3642
g41
sS'MSH2_105'
p3643
g52
sS'MSH2_102'
p3644
g33
sS'MSH2_103'
p3645
g141
sS'MSH2_100'
p3646
g33
sS'MSH2_101'
p3647
g2
sS'PMS2_376'
p3648
g15
sS'MSH2_108'
p3649
g8
sS'MSH2_109'
p3650
g52
sS'MSH6_869'
p3651
g100
sS'MSH6_868'
p3652
g92
sS'MSH6_865'
p3653
g54
sS'MSH6_864'
p3654
g8
sS'MSH6_867'
p3655
g33
sS'MSH6_866'
p3656
g41
sS'MSH6_861'
p3657
g29
sS'MSH6_860'
p3658
g17
sS'MSH6_863'
p3659
g2
sS'MSH6_862'
p3660
g13
sS'PMS2_123'
p3661
g17
sS'MSH6_908'
p3662
g2
sS'MLH1_586'
p3663
g29
sS'MLH1_587'
p3664
g92
sS'MSH2_218'
p3665
g74
sS'MSH2_219'
p3666
g178
sS'MLH1_582'
p3667
g13
sS'MLH1_583'
p3668
g54
sS'MLH1_580'
p3669
g29
sS'MLH1_581'
p3670
g15
sS'MSH2_212'
p3671
g41
sS'MSH2_213'
p3672
g13
sS'MSH2_210'
p3673
g92
sS'MSH2_211'
p3674
g8
sS'MSH2_216'
p3675
g6
sS'MSH2_217'
p3676
g6
sS'MLH1_588'
p3677
g13
sS'MLH1_589'
p3678
g29
sS'PMS2_647'
p3679
g41
sS'MSH6_72'
p3680
g13
sS'PMS2_646'
p3681
g178
sS'MSH6_319'
p3682
g4
sS'MSH6_318'
p3683
g2
sS'MSH6_991'
p3684
g15
sS'MSH6_313'
p3685
g41
sS'MSH6_312'
p3686
g178
sS'MSH6_311'
p3687
g41
sS'MSH6_310'
p3688
g13
sS'MSH6_317'
p3689
g41
sS'MSH6_316'
p3690
g178
sS'MSH6_315'
p3691
g17
sS'MSH6_314'
p3692
g17
sS'MLH1_458'
p3693
g92
sS'MLH1_459'
p3694
g17
sS'PMS2_533'
p3695
g33
sS'MSH2_368'
p3696
g2
sS'MSH2_369'
p3697
g11
sS'MSH2_366'
p3698
g54
sS'MSH2_367'
p3699
g33
sS'MSH2_364'
p3700
g2
sS'MSH2_365'
p3701
g29
sS'MSH2_362'
p3702
g13
sS'MLH1_455'
p3703
g4
sS'MSH2_360'
p3704
g13
sS'MSH2_361'
p3705
g52
sS'MSH6_5'
p3706
g17
sS'MSH6_4'
p3707
g74
sS'MSH6_7'
p3708
g13
sS'MSH6_6'
p3709
g4
sS'MSH6_1'
p3710
g92
sS'MSH6_3'
p3711
g178
sS'MSH6_2'
p3712
g17
sS'MSH6_977'
p3713
g141
sS'PMS2_640'
p3714
g2
sS'MSH6_9'
p3715
g17
sS'MSH6_8'
p3716
g141
sS'MSH6_600'
p3717
g52
sS'MSH6_603'
p3718
g41
sS'MSH6_602'
p3719
g17
sS'MSH6_712'
p3720
g13
sS'MLH1_735'
p3721
g4
sS'MLH1_734'
p3722
g54
sS'MLH1_737'
p3723
g11
sS'MLH1_736'
p3724
g2
sS'MLH1_731'
p3725
g15
sS'MLH1_730'
p3726
g15
sS'MLH1_733'
p3727
g113
sS'MLH1_732'
p3728
g41
sS'PMS2_643'
p3729
g74
sS'MLH1_739'
p3730
g52
sS'MLH1_738'
p3731
g8
sS'MSH6_978'
p3732
g74
sS'PMS2_518'
p3733
g2
sS'MSH6_609'
p3734
g13
sS'MSH6_608'
p3735
g6
sS'PMS2_191'
p3736
g141
sS'PMS2_190'
p3737
g29
sS'PMS2_193'
p3738
g6
sS'PMS2_192'
p3739
g100
sS'PMS2_195'
p3740
g17
sS'PMS2_194'
p3741
g6
sS'PMS2_197'
p3742
g8
sS'PMS2_196'
p3743
g29
sS'PMS2_199'
p3744
g178
sS'PMS2_198'
p3745
g6
sS'PMS2_629'
p3746
g6
sS'PMS2_628'
p3747
g178
sS'MSH6_414'
p3748
g21
sS'PMS2_849'
p3749
g4
sS'PMS2_848'
p3750
g15
sS'MSH6_415'
p3751
g74
sS'PMS2_843'
p3752
g100
sS'PMS2_842'
p3753
g52
sS'PMS2_841'
p3754
g21
sS'PMS2_840'
p3755
g15
sS'PMS2_847'
p3756
g178
sS'PMS2_846'
p3757
g8
sS'PMS2_845'
p3758
g113
sS'PMS2_844'
p3759
g15
sS'PMS2_77'
p3760
g2
sS'MSH2_759'
p3761
g8
sS'MSH2_758'
p3762
g11
sS'MSH2_757'
p3763
g141
sS'MSH2_756'
p3764
g4
sS'MSH2_755'
p3765
g17
sS'MSH2_754'
p3766
g4
sS'MSH2_753'
p3767
g8
sS'MSH2_752'
p3768
g178
sS'MSH2_751'
p3769
g8
sS'MSH2_750'
p3770
g13
sS'MSH6_856'
p3771
g6
sS'MSH2_599'
p3772
g13
sS'MSH2_598'
p3773
g33
sS'MSH2_595'
p3774
g13
sS'MSH2_594'
p3775
g4
sS'MSH2_597'
p3776
g11
sS'MSH2_596'
p3777
g52
sS'MSH2_591'
p3778
g15
sS'MSH2_590'
p3779
g2
sS'MSH2_593'
p3780
g74
sS'MSH2_592'
p3781
g92
sS'PMS2_447'
p3782
g13
sS'PMS2_446'
p3783
g15
sS'PMS2_445'
p3784
g17
sS'PMS2_444'
p3785
g178
sS'PMS2_443'
p3786
g178
sS'PMS2_442'
p3787
g15
sS'PMS2_441'
p3788
g2
sS'PMS2_440'
p3789
g15
sS'PMS2_70'
p3790
g11
sS'PMS2_449'
p3791
g74
sS'PMS2_448'
p3792
g8
sS'PMS2_774'
p3793
g41
sS'MSH6_418'
p3794
g17
sS'MSH6_419'
p3795
g74
sS'PMS2_515'
p3796
g100
sS'MLH1_119'
p3797
g4
sS'MLH1_118'
p3798
g41
sS'MSH6_785'
p3799
g113
sS'MLH1_115'
p3800
g6
sS'MLH1_114'
p3801
g4
sS'MLH1_117'
p3802
g4
sS'MLH1_116'
p3803
g4
sS'MLH1_111'
p3804
g29
sS'MLH1_110'
p3805
g33
sS'MLH1_113'
p3806
g33
sS'MLH1_112'
p3807
g113
sS'MSH2_681'
p3808
g74
sS'MSH2_680'
p3809
g178
sS'MSH2_683'
p3810
g8
sS'MSH2_682'
p3811
g4
sS'MSH2_685'
p3812
g6
sS'MSH2_684'
p3813
g33
sS'MSH2_687'
p3814
g13
sS'MSH2_686'
p3815
g33
sS'MSH2_689'
p3816
g29
sS'MSH2_688'
p3817
g92
sS'PMS2_763'
p3818
g2
sS'PMS2_676'
p3819
g92
sS'PMS2_677'
p3820
g2
sS'PMS2_670'
p3821
g41
sS'PMS2_649'
p3822
g178
sS'PMS2_671'
p3823
g4
sS'PMS2_672'
p3824
g92
sS'PMS2_517'
p3825
g17
sS'PMS2_673'
p3826
g54
sS'MSH6_1328'
p3827
g74
sS'MSH6_1329'
p3828
g17
sS'MSH6_1326'
p3829
g92
sS'MSH6_1327'
p3830
g52
sS'MSH6_1324'
p3831
g2
sS'MSH6_1325'
p3832
g41
sS'MSH6_1322'
p3833
g2
sS'MSH6_1323'
p3834
g54
sS'MSH6_1320'
p3835
g29
sS'MSH6_1321'
p3836
g178
sS'MLH1_201'
p3837
g33
sS'MLH1_200'
p3838
g4
sS'MLH1_203'
p3839
g11
sS'MLH1_202'
p3840
g29
sS'MLH1_205'
p3841
g178
sS'MLH1_204'
p3842
g33
sS'MLH1_207'
p3843
g13
sS'MLH1_206'
p3844
g4
sS'MLH1_209'
p3845
g52
sS'MLH1_208'
p3846
g15
sS'MSH6_86'
p3847
g4
sS'MSH6_87'
p3848
g17
sS'MSH6_84'
p3849
g29
sS'MSH6_85'
p3850
g15
sS'MSH6_82'
p3851
g15
sS'MSH6_83'
p3852
g29
sS'MSH6_80'
p3853
g33
sS'MSH6_81'
p3854
g29
sS'MSH6_445'
p3855
g17
sS'MSH6_88'
p3856
g100
sS'MSH6_89'
p3857
g11
sS'PMS2_511'
p3858
g4
sS'MSH6_1252'
p3859
g13
sS'MSH6_1253'
p3860
g33
sS'MSH6_1250'
p3861
g113
sS'MSH6_1251'
p3862
g17
sS'MSH6_1256'
p3863
g141
sS'MSH6_1257'
p3864
g17
sS'MSH6_1254'
p3865
g2
sS'MSH6_1255'
p3866
g11
sS'MSH6_1258'
p3867
g74
sS'MSH6_1259'
p3868
g52
sS'MSH6_670'
p3869
g8
sS'MSH6_671'
p3870
g13
sS'MSH6_672'
p3871
g4
sS'MSH6_673'
p3872
g15
sS'MSH6_674'
p3873
g8
sS'MSH6_675'
p3874
g2
sS'MSH6_101'
p3875
g2
sS'MSH6_677'
p3876
g17
sS'MSH6_678'
p3877
g2
sS'MSH6_679'
p3878
g13
sS'PMS2_513'
p3879
g17
sS'PMS2_798'
p3880
g100
sS'PMS2_812'
p3881
g100
sS'MSH2_818'
p3882
g41
sS'PMS2_512'
p3883
g8
sS'PMS2_765'
p3884
g29
sS'MSH6_1076'
p3885
g178
sS'MSH6_1077'
p3886
g15
sS'MSH6_1074'
p3887
g92
sS'MSH6_1075'
p3888
g100
sS'MSH6_1072'
p3889
g8
sS'MSH6_1073'
p3890
g15
sS'MSH6_1070'
p3891
g8
sS'MSH6_1071'
p3892
g11
sS'MSH6_1078'
p3893
g33
sS'MSH6_1079'
p3894
g6
sS'MSH2_119'
p3895
g13
sS'MSH2_118'
p3896
g141
sS'MSH6_416'
p3897
g6
sS'MSH6_417'
p3898
g41
sS'MSH6_410'
p3899
g92
sS'MSH6_411'
p3900
g178
sS'MSH6_412'
p3901
g41
sS'MSH6_413'
p3902
g21
sS'MSH2_111'
p3903
g29
sS'MSH2_110'
p3904
g41
sS'MSH2_113'
p3905
g41
sS'MSH2_112'
p3906
g17
sS'MSH2_115'
p3907
g52
sS'MSH2_114'
p3908
g2
sS'MSH2_117'
p3909
g21
sS'MSH2_116'
p3910
g11
sS'MSH6_784'
p3911
g52
sS'MSH6_1266'
p3912
g113
sS'MSH6_786'
p3913
g141
sS'MSH6_1220'
p3914
g29
sS'MSH6_780'
p3915
g29
sS'MSH6_781'
p3916
g15
sS'MSH6_782'
p3917
g13
sS'MSH6_783'
p3918
g100
sS'MSH6_992'
p3919
g2
sS'MSH6_788'
p3920
g6
sS'MSH6_773'
p3921
g13
sS'MSH6_890'
p3922
g33
sS'MSH6_891'
p3923
g6
sS'MSH6_892'
p3924
g17
sS'MSH6_893'
p3925
g13
sS'MSH6_894'
p3926
g74
sS'MSH6_895'
p3927
g4
sS'MSH6_896'
p3928
g41
sS'MSH6_897'
p3929
g52
sS'MSH6_898'
p3930
g15
sS'MSH6_899'
p3931
g2
sS'PMS2_651'
p3932
g41
s.